ARM GAS  /tmp/ccStyhCz.s 			page 1


   1              		.cpu cortex-m4
   2              		.eabi_attribute 27, 1
   3              		.eabi_attribute 28, 1
   4              		.eabi_attribute 20, 1
   5              		.eabi_attribute 21, 1
   6              		.eabi_attribute 23, 3
   7              		.eabi_attribute 24, 1
   8              		.eabi_attribute 25, 1
   9              		.eabi_attribute 26, 1
  10              		.eabi_attribute 30, 1
  11              		.eabi_attribute 34, 1
  12              		.eabi_attribute 18, 4
  13              		.file	"dwt_stm32_delay.c"
  14              		.text
  15              	.Ltext0:
  16              		.cfi_sections	.debug_frame
  17              		.section	.text.DWT_Delay_Init,"ax",%progbits
  18              		.align	1
  19              		.global	DWT_Delay_Init
  20              		.syntax unified
  21              		.thumb
  22              		.thumb_func
  23              		.fpu fpv4-sp-d16
  25              	DWT_Delay_Init:
  26              	.LFB124:
  27              		.file 1 "Src/dwt_stm32_delay.c"
   1:Src/dwt_stm32_delay.c **** #include "dwt_stm32_delay.h"
   2:Src/dwt_stm32_delay.c **** 
   3:Src/dwt_stm32_delay.c **** 
   4:Src/dwt_stm32_delay.c **** /**
   5:Src/dwt_stm32_delay.c ****  * @brief  Initializes DWT_Clock_Cycle_Count for DWT_Delay_us function
   6:Src/dwt_stm32_delay.c ****  * @return Error DWT counter
   7:Src/dwt_stm32_delay.c ****  *         1: clock cycle counter not started
   8:Src/dwt_stm32_delay.c ****  *         0: clock cycle counter works
   9:Src/dwt_stm32_delay.c ****  */
  10:Src/dwt_stm32_delay.c **** uint32_t DWT_Delay_Init(void) {
  28              		.loc 1 10 0
  29              		.cfi_startproc
  30              		@ args = 0, pretend = 0, frame = 0
  31              		@ frame_needed = 0, uses_anonymous_args = 0
  32              		@ link register save eliminated.
  11:Src/dwt_stm32_delay.c ****   /* Disable TRC */
  12:Src/dwt_stm32_delay.c ****   CoreDebug->DEMCR &= ~CoreDebug_DEMCR_TRCENA_Msk; // ~0x01000000;
  33              		.loc 1 12 0
  34 0000 0E4B     		ldr	r3, .L5
  35 0002 DA68     		ldr	r2, [r3, #12]
  36 0004 22F08072 		bic	r2, r2, #16777216
  37 0008 DA60     		str	r2, [r3, #12]
  13:Src/dwt_stm32_delay.c ****   /* Enable TRC */
  14:Src/dwt_stm32_delay.c ****   CoreDebug->DEMCR |=  CoreDebug_DEMCR_TRCENA_Msk; // 0x01000000;
  38              		.loc 1 14 0
  39 000a DA68     		ldr	r2, [r3, #12]
  40 000c 42F08072 		orr	r2, r2, #16777216
  41 0010 DA60     		str	r2, [r3, #12]
  15:Src/dwt_stm32_delay.c ****      
  16:Src/dwt_stm32_delay.c ****   /* Disable clock cycle counter */
  17:Src/dwt_stm32_delay.c ****   DWT->CTRL &= ~DWT_CTRL_CYCCNTENA_Msk; //~0x00000001;
ARM GAS  /tmp/ccStyhCz.s 			page 2


  42              		.loc 1 17 0
  43 0012 0B4B     		ldr	r3, .L5+4
  44 0014 1A68     		ldr	r2, [r3]
  45 0016 22F00102 		bic	r2, r2, #1
  46 001a 1A60     		str	r2, [r3]
  18:Src/dwt_stm32_delay.c ****   /* Enable  clock cycle counter */
  19:Src/dwt_stm32_delay.c ****   DWT->CTRL |=  DWT_CTRL_CYCCNTENA_Msk; //0x00000001;
  47              		.loc 1 19 0
  48 001c 1A68     		ldr	r2, [r3]
  49 001e 42F00102 		orr	r2, r2, #1
  50 0022 1A60     		str	r2, [r3]
  20:Src/dwt_stm32_delay.c ****      
  21:Src/dwt_stm32_delay.c ****   /* Reset the clock cycle counter value */
  22:Src/dwt_stm32_delay.c ****   DWT->CYCCNT = 0;
  51              		.loc 1 22 0
  52 0024 0022     		movs	r2, #0
  53 0026 5A60     		str	r2, [r3, #4]
  23:Src/dwt_stm32_delay.c ****      
  24:Src/dwt_stm32_delay.c ****   /* 3 NO OPERATION instructions */
  25:Src/dwt_stm32_delay.c ****   __ASM volatile ("NOP");
  54              		.loc 1 25 0
  55              		.syntax unified
  56              	@ 25 "Src/dwt_stm32_delay.c" 1
  57 0028 00BF     		NOP
  58              	@ 0 "" 2
  26:Src/dwt_stm32_delay.c ****   __ASM volatile ("NOP");
  59              		.loc 1 26 0
  60              	@ 26 "Src/dwt_stm32_delay.c" 1
  61 002a 00BF     		NOP
  62              	@ 0 "" 2
  27:Src/dwt_stm32_delay.c ****   __ASM volatile ("NOP");
  63              		.loc 1 27 0
  64              	@ 27 "Src/dwt_stm32_delay.c" 1
  65 002c 00BF     		NOP
  66              	@ 0 "" 2
  28:Src/dwt_stm32_delay.c **** 
  29:Src/dwt_stm32_delay.c ****   /* Check if clock cycle counter has started */
  30:Src/dwt_stm32_delay.c ****   if(DWT->CYCCNT)
  67              		.loc 1 30 0
  68              		.thumb
  69              		.syntax unified
  70 002e 5B68     		ldr	r3, [r3, #4]
  71 0030 0BB9     		cbnz	r3, .L4
  31:Src/dwt_stm32_delay.c ****     {
  32:Src/dwt_stm32_delay.c ****       return 0; /*clock cycle counter started*/
  33:Src/dwt_stm32_delay.c ****     }
  34:Src/dwt_stm32_delay.c ****   else
  35:Src/dwt_stm32_delay.c ****     {
  36:Src/dwt_stm32_delay.c ****       return 1; /*clock cycle counter not started*/
  72              		.loc 1 36 0
  73 0032 0120     		movs	r0, #1
  37:Src/dwt_stm32_delay.c ****     }
  38:Src/dwt_stm32_delay.c **** }
  74              		.loc 1 38 0
  75 0034 7047     		bx	lr
  76              	.L4:
  32:Src/dwt_stm32_delay.c ****     }
ARM GAS  /tmp/ccStyhCz.s 			page 3


  77              		.loc 1 32 0
  78 0036 1046     		mov	r0, r2
  79 0038 7047     		bx	lr
  80              	.L6:
  81 003a 00BF     		.align	2
  82              	.L5:
  83 003c F0ED00E0 		.word	-536810000
  84 0040 001000E0 		.word	-536866816
  85              		.cfi_endproc
  86              	.LFE124:
  88              		.text
  89              	.Letext0:
  90              		.file 2 "/home/saicharan/arm/arm-none-eabi/include/machine/_default_types.h"
  91              		.file 3 "/home/saicharan/arm/arm-none-eabi/include/stdint.h"
  92              		.file 4 "Drivers/CMSIS/Include/core_cm4.h"
  93              		.file 5 "Drivers/CMSIS/Device/ST/STM32F4xx/Include/system_stm32f4xx.h"
  94              		.file 6 "/home/saicharan/arm/arm-none-eabi/include/sys/lock.h"
  95              		.file 7 "/home/saicharan/arm/arm-none-eabi/include/sys/_types.h"
  96              		.file 8 "/home/saicharan/arm/lib/gcc/arm-none-eabi/6.3.0/include/stddef.h"
  97              		.file 9 "/home/saicharan/arm/arm-none-eabi/include/sys/reent.h"
ARM GAS  /tmp/ccStyhCz.s 			page 4


DEFINED SYMBOLS
                            *ABS*:0000000000000000 dwt_stm32_delay.c
     /tmp/ccStyhCz.s:18     .text.DWT_Delay_Init:0000000000000000 $t
     /tmp/ccStyhCz.s:25     .text.DWT_Delay_Init:0000000000000000 DWT_Delay_Init
     /tmp/ccStyhCz.s:83     .text.DWT_Delay_Init:000000000000003c $d
                     .debug_frame:0000000000000010 $d

NO UNDEFINED SYMBOLS
