ARM GAS  /tmp/ccEpSy9e.s 			page 1


   1              		.cpu cortex-m4
   2              		.eabi_attribute 27, 1
   3              		.eabi_attribute 28, 1
   4              		.eabi_attribute 20, 1
   5              		.eabi_attribute 21, 1
   6              		.eabi_attribute 23, 3
   7              		.eabi_attribute 24, 1
   8              		.eabi_attribute 25, 1
   9              		.eabi_attribute 26, 1
  10              		.eabi_attribute 30, 1
  11              		.eabi_attribute 34, 1
  12              		.eabi_attribute 18, 4
  13              		.file	"stm32f4xx_hal_gpio.c"
  14              		.text
  15              	.Ltext0:
  16              		.cfi_sections	.debug_frame
  17              		.section	.text.HAL_GPIO_Init,"ax",%progbits
  18              		.align	1
  19              		.global	HAL_GPIO_Init
  20              		.syntax unified
  21              		.thumb
  22              		.thumb_func
  23              		.fpu fpv4-sp-d16
  25              	HAL_GPIO_Init:
  26              	.LFB123:
  27              		.file 1 "Drivers/STM32F4xx_HAL_Driver/Src/stm32f4xx_hal_gpio.c"
   1:Drivers/STM32F4xx_HAL_Driver/Src/stm32f4xx_hal_gpio.c **** /**
   2:Drivers/STM32F4xx_HAL_Driver/Src/stm32f4xx_hal_gpio.c ****   ******************************************************************************
   3:Drivers/STM32F4xx_HAL_Driver/Src/stm32f4xx_hal_gpio.c ****   * @file    stm32f4xx_hal_gpio.c
   4:Drivers/STM32F4xx_HAL_Driver/Src/stm32f4xx_hal_gpio.c ****   * @author  MCD Application Team
   5:Drivers/STM32F4xx_HAL_Driver/Src/stm32f4xx_hal_gpio.c ****   * @brief   GPIO HAL module driver.
   6:Drivers/STM32F4xx_HAL_Driver/Src/stm32f4xx_hal_gpio.c ****   *          This file provides firmware functions to manage the following 
   7:Drivers/STM32F4xx_HAL_Driver/Src/stm32f4xx_hal_gpio.c ****   *          functionalities of the General Purpose Input/Output (GPIO) peripheral:
   8:Drivers/STM32F4xx_HAL_Driver/Src/stm32f4xx_hal_gpio.c ****   *           + Initialization and de-initialization functions
   9:Drivers/STM32F4xx_HAL_Driver/Src/stm32f4xx_hal_gpio.c ****   *           + IO operation functions
  10:Drivers/STM32F4xx_HAL_Driver/Src/stm32f4xx_hal_gpio.c ****   *
  11:Drivers/STM32F4xx_HAL_Driver/Src/stm32f4xx_hal_gpio.c ****   @verbatim
  12:Drivers/STM32F4xx_HAL_Driver/Src/stm32f4xx_hal_gpio.c ****   ==============================================================================
  13:Drivers/STM32F4xx_HAL_Driver/Src/stm32f4xx_hal_gpio.c ****                     ##### GPIO Peripheral features #####
  14:Drivers/STM32F4xx_HAL_Driver/Src/stm32f4xx_hal_gpio.c ****   ==============================================================================
  15:Drivers/STM32F4xx_HAL_Driver/Src/stm32f4xx_hal_gpio.c ****   [..] 
  16:Drivers/STM32F4xx_HAL_Driver/Src/stm32f4xx_hal_gpio.c ****   Subject to the specific hardware characteristics of each I/O port listed in the datasheet, each
  17:Drivers/STM32F4xx_HAL_Driver/Src/stm32f4xx_hal_gpio.c ****   port bit of the General Purpose IO (GPIO) Ports, can be individually configured by software
  18:Drivers/STM32F4xx_HAL_Driver/Src/stm32f4xx_hal_gpio.c ****   in several modes:
  19:Drivers/STM32F4xx_HAL_Driver/Src/stm32f4xx_hal_gpio.c ****   (+) Input mode 
  20:Drivers/STM32F4xx_HAL_Driver/Src/stm32f4xx_hal_gpio.c ****   (+) Analog mode
  21:Drivers/STM32F4xx_HAL_Driver/Src/stm32f4xx_hal_gpio.c ****   (+) Output mode
  22:Drivers/STM32F4xx_HAL_Driver/Src/stm32f4xx_hal_gpio.c ****   (+) Alternate function mode
  23:Drivers/STM32F4xx_HAL_Driver/Src/stm32f4xx_hal_gpio.c ****   (+) External interrupt/event lines
  24:Drivers/STM32F4xx_HAL_Driver/Src/stm32f4xx_hal_gpio.c **** 
  25:Drivers/STM32F4xx_HAL_Driver/Src/stm32f4xx_hal_gpio.c ****   [..]  
  26:Drivers/STM32F4xx_HAL_Driver/Src/stm32f4xx_hal_gpio.c ****   During and just after reset, the alternate functions and external interrupt  
  27:Drivers/STM32F4xx_HAL_Driver/Src/stm32f4xx_hal_gpio.c ****   lines are not active and the I/O ports are configured in input floating mode.
  28:Drivers/STM32F4xx_HAL_Driver/Src/stm32f4xx_hal_gpio.c ****   
  29:Drivers/STM32F4xx_HAL_Driver/Src/stm32f4xx_hal_gpio.c ****   [..]   
  30:Drivers/STM32F4xx_HAL_Driver/Src/stm32f4xx_hal_gpio.c ****   All GPIO pins have weak internal pull-up and pull-down resistors, which can be 
  31:Drivers/STM32F4xx_HAL_Driver/Src/stm32f4xx_hal_gpio.c ****   activated or not.
ARM GAS  /tmp/ccEpSy9e.s 			page 2


  32:Drivers/STM32F4xx_HAL_Driver/Src/stm32f4xx_hal_gpio.c **** 
  33:Drivers/STM32F4xx_HAL_Driver/Src/stm32f4xx_hal_gpio.c ****   [..]
  34:Drivers/STM32F4xx_HAL_Driver/Src/stm32f4xx_hal_gpio.c ****   In Output or Alternate mode, each IO can be configured on open-drain or push-pull
  35:Drivers/STM32F4xx_HAL_Driver/Src/stm32f4xx_hal_gpio.c ****   type and the IO speed can be selected depending on the VDD value.
  36:Drivers/STM32F4xx_HAL_Driver/Src/stm32f4xx_hal_gpio.c **** 
  37:Drivers/STM32F4xx_HAL_Driver/Src/stm32f4xx_hal_gpio.c ****   [..]  
  38:Drivers/STM32F4xx_HAL_Driver/Src/stm32f4xx_hal_gpio.c ****   All ports have external interrupt/event capability. To use external interrupt 
  39:Drivers/STM32F4xx_HAL_Driver/Src/stm32f4xx_hal_gpio.c ****   lines, the port must be configured in input mode. All available GPIO pins are 
  40:Drivers/STM32F4xx_HAL_Driver/Src/stm32f4xx_hal_gpio.c ****   connected to the 16 external interrupt/event lines from EXTI0 to EXTI15.
  41:Drivers/STM32F4xx_HAL_Driver/Src/stm32f4xx_hal_gpio.c ****   
  42:Drivers/STM32F4xx_HAL_Driver/Src/stm32f4xx_hal_gpio.c ****   [..]
  43:Drivers/STM32F4xx_HAL_Driver/Src/stm32f4xx_hal_gpio.c ****   The external interrupt/event controller consists of up to 23 edge detectors 
  44:Drivers/STM32F4xx_HAL_Driver/Src/stm32f4xx_hal_gpio.c ****   (16 lines are connected to GPIO) for generating event/interrupt requests (each 
  45:Drivers/STM32F4xx_HAL_Driver/Src/stm32f4xx_hal_gpio.c ****   input line can be independently configured to select the type (interrupt or event) 
  46:Drivers/STM32F4xx_HAL_Driver/Src/stm32f4xx_hal_gpio.c ****   and the corresponding trigger event (rising or falling or both). Each line can 
  47:Drivers/STM32F4xx_HAL_Driver/Src/stm32f4xx_hal_gpio.c ****   also be masked independently. 
  48:Drivers/STM32F4xx_HAL_Driver/Src/stm32f4xx_hal_gpio.c **** 
  49:Drivers/STM32F4xx_HAL_Driver/Src/stm32f4xx_hal_gpio.c ****                      ##### How to use this driver #####
  50:Drivers/STM32F4xx_HAL_Driver/Src/stm32f4xx_hal_gpio.c ****   ==============================================================================  
  51:Drivers/STM32F4xx_HAL_Driver/Src/stm32f4xx_hal_gpio.c ****   [..]
  52:Drivers/STM32F4xx_HAL_Driver/Src/stm32f4xx_hal_gpio.c ****     (#) Enable the GPIO AHB clock using the following function: __HAL_RCC_GPIOx_CLK_ENABLE(). 
  53:Drivers/STM32F4xx_HAL_Driver/Src/stm32f4xx_hal_gpio.c **** 
  54:Drivers/STM32F4xx_HAL_Driver/Src/stm32f4xx_hal_gpio.c ****     (#) Configure the GPIO pin(s) using HAL_GPIO_Init().
  55:Drivers/STM32F4xx_HAL_Driver/Src/stm32f4xx_hal_gpio.c ****         (++) Configure the IO mode using "Mode" member from GPIO_InitTypeDef structure
  56:Drivers/STM32F4xx_HAL_Driver/Src/stm32f4xx_hal_gpio.c ****         (++) Activate Pull-up, Pull-down resistor using "Pull" member from GPIO_InitTypeDef 
  57:Drivers/STM32F4xx_HAL_Driver/Src/stm32f4xx_hal_gpio.c ****              structure.
  58:Drivers/STM32F4xx_HAL_Driver/Src/stm32f4xx_hal_gpio.c ****         (++) In case of Output or alternate function mode selection: the speed is 
  59:Drivers/STM32F4xx_HAL_Driver/Src/stm32f4xx_hal_gpio.c ****              configured through "Speed" member from GPIO_InitTypeDef structure.
  60:Drivers/STM32F4xx_HAL_Driver/Src/stm32f4xx_hal_gpio.c ****         (++) In alternate mode is selection, the alternate function connected to the IO
  61:Drivers/STM32F4xx_HAL_Driver/Src/stm32f4xx_hal_gpio.c ****              is configured through "Alternate" member from GPIO_InitTypeDef structure.
  62:Drivers/STM32F4xx_HAL_Driver/Src/stm32f4xx_hal_gpio.c ****         (++) Analog mode is required when a pin is to be used as ADC channel 
  63:Drivers/STM32F4xx_HAL_Driver/Src/stm32f4xx_hal_gpio.c ****              or DAC output.
  64:Drivers/STM32F4xx_HAL_Driver/Src/stm32f4xx_hal_gpio.c ****         (++) In case of external interrupt/event selection the "Mode" member from 
  65:Drivers/STM32F4xx_HAL_Driver/Src/stm32f4xx_hal_gpio.c ****              GPIO_InitTypeDef structure select the type (interrupt or event) and 
  66:Drivers/STM32F4xx_HAL_Driver/Src/stm32f4xx_hal_gpio.c ****              the corresponding trigger event (rising or falling or both).
  67:Drivers/STM32F4xx_HAL_Driver/Src/stm32f4xx_hal_gpio.c **** 
  68:Drivers/STM32F4xx_HAL_Driver/Src/stm32f4xx_hal_gpio.c ****     (#) In case of external interrupt/event mode selection, configure NVIC IRQ priority 
  69:Drivers/STM32F4xx_HAL_Driver/Src/stm32f4xx_hal_gpio.c ****         mapped to the EXTI line using HAL_NVIC_SetPriority() and enable it using
  70:Drivers/STM32F4xx_HAL_Driver/Src/stm32f4xx_hal_gpio.c ****         HAL_NVIC_EnableIRQ().
  71:Drivers/STM32F4xx_HAL_Driver/Src/stm32f4xx_hal_gpio.c ****          
  72:Drivers/STM32F4xx_HAL_Driver/Src/stm32f4xx_hal_gpio.c ****     (#) To get the level of a pin configured in input mode use HAL_GPIO_ReadPin().
  73:Drivers/STM32F4xx_HAL_Driver/Src/stm32f4xx_hal_gpio.c ****             
  74:Drivers/STM32F4xx_HAL_Driver/Src/stm32f4xx_hal_gpio.c ****     (#) To set/reset the level of a pin configured in output mode use 
  75:Drivers/STM32F4xx_HAL_Driver/Src/stm32f4xx_hal_gpio.c ****         HAL_GPIO_WritePin()/HAL_GPIO_TogglePin().
  76:Drivers/STM32F4xx_HAL_Driver/Src/stm32f4xx_hal_gpio.c ****     
  77:Drivers/STM32F4xx_HAL_Driver/Src/stm32f4xx_hal_gpio.c ****     (#) To lock pin configuration until next reset use HAL_GPIO_LockPin().
  78:Drivers/STM32F4xx_HAL_Driver/Src/stm32f4xx_hal_gpio.c **** 
  79:Drivers/STM32F4xx_HAL_Driver/Src/stm32f4xx_hal_gpio.c ****                  
  80:Drivers/STM32F4xx_HAL_Driver/Src/stm32f4xx_hal_gpio.c ****     (#) During and just after reset, the alternate functions are not 
  81:Drivers/STM32F4xx_HAL_Driver/Src/stm32f4xx_hal_gpio.c ****         active and the GPIO pins are configured in input floating mode (except JTAG
  82:Drivers/STM32F4xx_HAL_Driver/Src/stm32f4xx_hal_gpio.c ****         pins).
  83:Drivers/STM32F4xx_HAL_Driver/Src/stm32f4xx_hal_gpio.c ****   
  84:Drivers/STM32F4xx_HAL_Driver/Src/stm32f4xx_hal_gpio.c ****     (#) The LSE oscillator pins OSC32_IN and OSC32_OUT can be used as general purpose 
  85:Drivers/STM32F4xx_HAL_Driver/Src/stm32f4xx_hal_gpio.c ****         (PC14 and PC15, respectively) when the LSE oscillator is off. The LSE has 
  86:Drivers/STM32F4xx_HAL_Driver/Src/stm32f4xx_hal_gpio.c ****         priority over the GPIO function.
  87:Drivers/STM32F4xx_HAL_Driver/Src/stm32f4xx_hal_gpio.c ****   
  88:Drivers/STM32F4xx_HAL_Driver/Src/stm32f4xx_hal_gpio.c ****     (#) The HSE oscillator pins OSC_IN/OSC_OUT can be used as 
ARM GAS  /tmp/ccEpSy9e.s 			page 3


  89:Drivers/STM32F4xx_HAL_Driver/Src/stm32f4xx_hal_gpio.c ****         general purpose PH0 and PH1, respectively, when the HSE oscillator is off. 
  90:Drivers/STM32F4xx_HAL_Driver/Src/stm32f4xx_hal_gpio.c ****         The HSE has priority over the GPIO function.
  91:Drivers/STM32F4xx_HAL_Driver/Src/stm32f4xx_hal_gpio.c ****   
  92:Drivers/STM32F4xx_HAL_Driver/Src/stm32f4xx_hal_gpio.c ****   @endverbatim
  93:Drivers/STM32F4xx_HAL_Driver/Src/stm32f4xx_hal_gpio.c ****   ******************************************************************************
  94:Drivers/STM32F4xx_HAL_Driver/Src/stm32f4xx_hal_gpio.c ****   * @attention
  95:Drivers/STM32F4xx_HAL_Driver/Src/stm32f4xx_hal_gpio.c ****   *
  96:Drivers/STM32F4xx_HAL_Driver/Src/stm32f4xx_hal_gpio.c ****   * <h2><center>&copy; COPYRIGHT(c) 2017 STMicroelectronics</center></h2>
  97:Drivers/STM32F4xx_HAL_Driver/Src/stm32f4xx_hal_gpio.c ****   *
  98:Drivers/STM32F4xx_HAL_Driver/Src/stm32f4xx_hal_gpio.c ****   * Redistribution and use in source and binary forms, with or without modification,
  99:Drivers/STM32F4xx_HAL_Driver/Src/stm32f4xx_hal_gpio.c ****   * are permitted provided that the following conditions are met:
 100:Drivers/STM32F4xx_HAL_Driver/Src/stm32f4xx_hal_gpio.c ****   *   1. Redistributions of source code must retain the above copyright notice,
 101:Drivers/STM32F4xx_HAL_Driver/Src/stm32f4xx_hal_gpio.c ****   *      this list of conditions and the following disclaimer.
 102:Drivers/STM32F4xx_HAL_Driver/Src/stm32f4xx_hal_gpio.c ****   *   2. Redistributions in binary form must reproduce the above copyright notice,
 103:Drivers/STM32F4xx_HAL_Driver/Src/stm32f4xx_hal_gpio.c ****   *      this list of conditions and the following disclaimer in the documentation
 104:Drivers/STM32F4xx_HAL_Driver/Src/stm32f4xx_hal_gpio.c ****   *      and/or other materials provided with the distribution.
 105:Drivers/STM32F4xx_HAL_Driver/Src/stm32f4xx_hal_gpio.c ****   *   3. Neither the name of STMicroelectronics nor the names of its contributors
 106:Drivers/STM32F4xx_HAL_Driver/Src/stm32f4xx_hal_gpio.c ****   *      may be used to endorse or promote products derived from this software
 107:Drivers/STM32F4xx_HAL_Driver/Src/stm32f4xx_hal_gpio.c ****   *      without specific prior written permission.
 108:Drivers/STM32F4xx_HAL_Driver/Src/stm32f4xx_hal_gpio.c ****   *
 109:Drivers/STM32F4xx_HAL_Driver/Src/stm32f4xx_hal_gpio.c ****   * THIS SOFTWARE IS PROVIDED BY THE COPYRIGHT HOLDERS AND CONTRIBUTORS "AS IS"
 110:Drivers/STM32F4xx_HAL_Driver/Src/stm32f4xx_hal_gpio.c ****   * AND ANY EXPRESS OR IMPLIED WARRANTIES, INCLUDING, BUT NOT LIMITED TO, THE
 111:Drivers/STM32F4xx_HAL_Driver/Src/stm32f4xx_hal_gpio.c ****   * IMPLIED WARRANTIES OF MERCHANTABILITY AND FITNESS FOR A PARTICULAR PURPOSE ARE
 112:Drivers/STM32F4xx_HAL_Driver/Src/stm32f4xx_hal_gpio.c ****   * DISCLAIMED. IN NO EVENT SHALL THE COPYRIGHT HOLDER OR CONTRIBUTORS BE LIABLE
 113:Drivers/STM32F4xx_HAL_Driver/Src/stm32f4xx_hal_gpio.c ****   * FOR ANY DIRECT, INDIRECT, INCIDENTAL, SPECIAL, EXEMPLARY, OR CONSEQUENTIAL
 114:Drivers/STM32F4xx_HAL_Driver/Src/stm32f4xx_hal_gpio.c ****   * DAMAGES (INCLUDING, BUT NOT LIMITED TO, PROCUREMENT OF SUBSTITUTE GOODS OR
 115:Drivers/STM32F4xx_HAL_Driver/Src/stm32f4xx_hal_gpio.c ****   * SERVICES; LOSS OF USE, DATA, OR PROFITS; OR BUSINESS INTERRUPTION) HOWEVER
 116:Drivers/STM32F4xx_HAL_Driver/Src/stm32f4xx_hal_gpio.c ****   * CAUSED AND ON ANY THEORY OF LIABILITY, WHETHER IN CONTRACT, STRICT LIABILITY,
 117:Drivers/STM32F4xx_HAL_Driver/Src/stm32f4xx_hal_gpio.c ****   * OR TORT (INCLUDING NEGLIGENCE OR OTHERWISE) ARISING IN ANY WAY OUT OF THE USE
 118:Drivers/STM32F4xx_HAL_Driver/Src/stm32f4xx_hal_gpio.c ****   * OF THIS SOFTWARE, EVEN IF ADVISED OF THE POSSIBILITY OF SUCH DAMAGE.
 119:Drivers/STM32F4xx_HAL_Driver/Src/stm32f4xx_hal_gpio.c ****   *
 120:Drivers/STM32F4xx_HAL_Driver/Src/stm32f4xx_hal_gpio.c ****   ******************************************************************************
 121:Drivers/STM32F4xx_HAL_Driver/Src/stm32f4xx_hal_gpio.c ****   */ 
 122:Drivers/STM32F4xx_HAL_Driver/Src/stm32f4xx_hal_gpio.c **** 
 123:Drivers/STM32F4xx_HAL_Driver/Src/stm32f4xx_hal_gpio.c **** /* Includes ------------------------------------------------------------------*/
 124:Drivers/STM32F4xx_HAL_Driver/Src/stm32f4xx_hal_gpio.c **** #include "stm32f4xx_hal.h"
 125:Drivers/STM32F4xx_HAL_Driver/Src/stm32f4xx_hal_gpio.c **** 
 126:Drivers/STM32F4xx_HAL_Driver/Src/stm32f4xx_hal_gpio.c **** /** @addtogroup STM32F4xx_HAL_Driver
 127:Drivers/STM32F4xx_HAL_Driver/Src/stm32f4xx_hal_gpio.c ****   * @{
 128:Drivers/STM32F4xx_HAL_Driver/Src/stm32f4xx_hal_gpio.c ****   */
 129:Drivers/STM32F4xx_HAL_Driver/Src/stm32f4xx_hal_gpio.c **** 
 130:Drivers/STM32F4xx_HAL_Driver/Src/stm32f4xx_hal_gpio.c **** /** @defgroup GPIO GPIO
 131:Drivers/STM32F4xx_HAL_Driver/Src/stm32f4xx_hal_gpio.c ****   * @brief GPIO HAL module driver
 132:Drivers/STM32F4xx_HAL_Driver/Src/stm32f4xx_hal_gpio.c ****   * @{
 133:Drivers/STM32F4xx_HAL_Driver/Src/stm32f4xx_hal_gpio.c ****   */
 134:Drivers/STM32F4xx_HAL_Driver/Src/stm32f4xx_hal_gpio.c **** 
 135:Drivers/STM32F4xx_HAL_Driver/Src/stm32f4xx_hal_gpio.c **** #ifdef HAL_GPIO_MODULE_ENABLED
 136:Drivers/STM32F4xx_HAL_Driver/Src/stm32f4xx_hal_gpio.c **** 
 137:Drivers/STM32F4xx_HAL_Driver/Src/stm32f4xx_hal_gpio.c **** /* Private typedef -----------------------------------------------------------*/
 138:Drivers/STM32F4xx_HAL_Driver/Src/stm32f4xx_hal_gpio.c **** /* Private define ------------------------------------------------------------*/
 139:Drivers/STM32F4xx_HAL_Driver/Src/stm32f4xx_hal_gpio.c **** /** @addtogroup GPIO_Private_Constants GPIO Private Constants
 140:Drivers/STM32F4xx_HAL_Driver/Src/stm32f4xx_hal_gpio.c ****   * @{
 141:Drivers/STM32F4xx_HAL_Driver/Src/stm32f4xx_hal_gpio.c ****   */
 142:Drivers/STM32F4xx_HAL_Driver/Src/stm32f4xx_hal_gpio.c **** #define GPIO_MODE             0x00000003U
 143:Drivers/STM32F4xx_HAL_Driver/Src/stm32f4xx_hal_gpio.c **** #define EXTI_MODE             0x10000000U
 144:Drivers/STM32F4xx_HAL_Driver/Src/stm32f4xx_hal_gpio.c **** #define GPIO_MODE_IT          0x00010000U
 145:Drivers/STM32F4xx_HAL_Driver/Src/stm32f4xx_hal_gpio.c **** #define GPIO_MODE_EVT         0x00020000U
ARM GAS  /tmp/ccEpSy9e.s 			page 4


 146:Drivers/STM32F4xx_HAL_Driver/Src/stm32f4xx_hal_gpio.c **** #define RISING_EDGE           0x00100000U
 147:Drivers/STM32F4xx_HAL_Driver/Src/stm32f4xx_hal_gpio.c **** #define FALLING_EDGE          0x00200000U
 148:Drivers/STM32F4xx_HAL_Driver/Src/stm32f4xx_hal_gpio.c **** #define GPIO_OUTPUT_TYPE      0x00000010U
 149:Drivers/STM32F4xx_HAL_Driver/Src/stm32f4xx_hal_gpio.c **** 
 150:Drivers/STM32F4xx_HAL_Driver/Src/stm32f4xx_hal_gpio.c **** #define GPIO_NUMBER           16U
 151:Drivers/STM32F4xx_HAL_Driver/Src/stm32f4xx_hal_gpio.c **** /**
 152:Drivers/STM32F4xx_HAL_Driver/Src/stm32f4xx_hal_gpio.c ****   * @}
 153:Drivers/STM32F4xx_HAL_Driver/Src/stm32f4xx_hal_gpio.c ****   */
 154:Drivers/STM32F4xx_HAL_Driver/Src/stm32f4xx_hal_gpio.c **** /* Private macro -------------------------------------------------------------*/
 155:Drivers/STM32F4xx_HAL_Driver/Src/stm32f4xx_hal_gpio.c **** /* Private variables ---------------------------------------------------------*/
 156:Drivers/STM32F4xx_HAL_Driver/Src/stm32f4xx_hal_gpio.c **** /* Private function prototypes -----------------------------------------------*/
 157:Drivers/STM32F4xx_HAL_Driver/Src/stm32f4xx_hal_gpio.c **** /* Private functions ---------------------------------------------------------*/
 158:Drivers/STM32F4xx_HAL_Driver/Src/stm32f4xx_hal_gpio.c **** /* Exported functions --------------------------------------------------------*/
 159:Drivers/STM32F4xx_HAL_Driver/Src/stm32f4xx_hal_gpio.c **** /** @defgroup GPIO_Exported_Functions GPIO Exported Functions
 160:Drivers/STM32F4xx_HAL_Driver/Src/stm32f4xx_hal_gpio.c ****   * @{
 161:Drivers/STM32F4xx_HAL_Driver/Src/stm32f4xx_hal_gpio.c ****   */
 162:Drivers/STM32F4xx_HAL_Driver/Src/stm32f4xx_hal_gpio.c **** 
 163:Drivers/STM32F4xx_HAL_Driver/Src/stm32f4xx_hal_gpio.c **** /** @defgroup GPIO_Exported_Functions_Group1 Initialization and de-initialization functions
 164:Drivers/STM32F4xx_HAL_Driver/Src/stm32f4xx_hal_gpio.c ****   *  @brief    Initialization and Configuration functions
 165:Drivers/STM32F4xx_HAL_Driver/Src/stm32f4xx_hal_gpio.c ****   *
 166:Drivers/STM32F4xx_HAL_Driver/Src/stm32f4xx_hal_gpio.c **** @verbatim    
 167:Drivers/STM32F4xx_HAL_Driver/Src/stm32f4xx_hal_gpio.c ****  ===============================================================================
 168:Drivers/STM32F4xx_HAL_Driver/Src/stm32f4xx_hal_gpio.c ****               ##### Initialization and de-initialization functions #####
 169:Drivers/STM32F4xx_HAL_Driver/Src/stm32f4xx_hal_gpio.c ****  ===============================================================================
 170:Drivers/STM32F4xx_HAL_Driver/Src/stm32f4xx_hal_gpio.c ****   [..]
 171:Drivers/STM32F4xx_HAL_Driver/Src/stm32f4xx_hal_gpio.c ****     This section provides functions allowing to initialize and de-initialize the GPIOs
 172:Drivers/STM32F4xx_HAL_Driver/Src/stm32f4xx_hal_gpio.c ****     to be ready for use.
 173:Drivers/STM32F4xx_HAL_Driver/Src/stm32f4xx_hal_gpio.c ****  
 174:Drivers/STM32F4xx_HAL_Driver/Src/stm32f4xx_hal_gpio.c **** @endverbatim
 175:Drivers/STM32F4xx_HAL_Driver/Src/stm32f4xx_hal_gpio.c ****   * @{
 176:Drivers/STM32F4xx_HAL_Driver/Src/stm32f4xx_hal_gpio.c ****   */
 177:Drivers/STM32F4xx_HAL_Driver/Src/stm32f4xx_hal_gpio.c **** 
 178:Drivers/STM32F4xx_HAL_Driver/Src/stm32f4xx_hal_gpio.c **** 
 179:Drivers/STM32F4xx_HAL_Driver/Src/stm32f4xx_hal_gpio.c **** /**
 180:Drivers/STM32F4xx_HAL_Driver/Src/stm32f4xx_hal_gpio.c ****   * @brief  Initializes the GPIOx peripheral according to the specified parameters in the GPIO_Init
 181:Drivers/STM32F4xx_HAL_Driver/Src/stm32f4xx_hal_gpio.c ****   * @param  GPIOx where x can be (A..K) to select the GPIO peripheral for STM32F429X device or
 182:Drivers/STM32F4xx_HAL_Driver/Src/stm32f4xx_hal_gpio.c ****   *                      x can be (A..I) to select the GPIO peripheral for STM32F40XX and STM32F427
 183:Drivers/STM32F4xx_HAL_Driver/Src/stm32f4xx_hal_gpio.c ****   * @param  GPIO_Init pointer to a GPIO_InitTypeDef structure that contains
 184:Drivers/STM32F4xx_HAL_Driver/Src/stm32f4xx_hal_gpio.c ****   *         the configuration information for the specified GPIO peripheral.
 185:Drivers/STM32F4xx_HAL_Driver/Src/stm32f4xx_hal_gpio.c ****   * @retval None
 186:Drivers/STM32F4xx_HAL_Driver/Src/stm32f4xx_hal_gpio.c ****   */
 187:Drivers/STM32F4xx_HAL_Driver/Src/stm32f4xx_hal_gpio.c **** void HAL_GPIO_Init(GPIO_TypeDef  *GPIOx, GPIO_InitTypeDef *GPIO_Init)
 188:Drivers/STM32F4xx_HAL_Driver/Src/stm32f4xx_hal_gpio.c **** {
  28              		.loc 1 188 0
  29              		.cfi_startproc
  30              		@ args = 0, pretend = 0, frame = 8
  31              		@ frame_needed = 0, uses_anonymous_args = 0
  32              	.LVL0:
  33 0000 2DE9F047 		push	{r4, r5, r6, r7, r8, r9, r10, lr}
  34              	.LCFI0:
  35              		.cfi_def_cfa_offset 32
  36              		.cfi_offset 4, -32
  37              		.cfi_offset 5, -28
  38              		.cfi_offset 6, -24
  39              		.cfi_offset 7, -20
  40              		.cfi_offset 8, -16
  41              		.cfi_offset 9, -12
ARM GAS  /tmp/ccEpSy9e.s 			page 5


  42              		.cfi_offset 10, -8
  43              		.cfi_offset 14, -4
  44 0004 82B0     		sub	sp, sp, #8
  45              	.LCFI1:
  46              		.cfi_def_cfa_offset 40
  47 0006 8046     		mov	r8, r0
  48 0008 0F46     		mov	r7, r1
  49              	.LVL1:
 189:Drivers/STM32F4xx_HAL_Driver/Src/stm32f4xx_hal_gpio.c ****   uint32_t position;
 190:Drivers/STM32F4xx_HAL_Driver/Src/stm32f4xx_hal_gpio.c ****   uint32_t ioposition = 0x00U;
 191:Drivers/STM32F4xx_HAL_Driver/Src/stm32f4xx_hal_gpio.c ****   uint32_t iocurrent = 0x00U;
 192:Drivers/STM32F4xx_HAL_Driver/Src/stm32f4xx_hal_gpio.c ****   uint32_t temp = 0x00U;
 193:Drivers/STM32F4xx_HAL_Driver/Src/stm32f4xx_hal_gpio.c **** 
 194:Drivers/STM32F4xx_HAL_Driver/Src/stm32f4xx_hal_gpio.c ****   /* Check the parameters */
 195:Drivers/STM32F4xx_HAL_Driver/Src/stm32f4xx_hal_gpio.c ****   assert_param(IS_GPIO_ALL_INSTANCE(GPIOx));
  50              		.loc 1 195 0
  51 000a B44B     		ldr	r3, .L34
  52 000c 9842     		cmp	r0, r3
  53 000e 23D0     		beq	.L2
  54              		.loc 1 195 0 is_stmt 0 discriminator 1
  55 0010 03F58063 		add	r3, r3, #1024
  56 0014 9842     		cmp	r0, r3
  57 0016 1FD0     		beq	.L2
  58              		.loc 1 195 0 discriminator 2
  59 0018 03F58063 		add	r3, r3, #1024
  60 001c 9842     		cmp	r0, r3
  61 001e 1BD0     		beq	.L2
  62              		.loc 1 195 0 discriminator 3
  63 0020 03F58063 		add	r3, r3, #1024
  64 0024 9842     		cmp	r0, r3
  65 0026 17D0     		beq	.L2
  66              		.loc 1 195 0 discriminator 4
  67 0028 03F58063 		add	r3, r3, #1024
  68 002c 9842     		cmp	r0, r3
  69 002e 13D0     		beq	.L2
  70              		.loc 1 195 0 discriminator 5
  71 0030 03F58063 		add	r3, r3, #1024
  72 0034 9842     		cmp	r0, r3
  73 0036 0FD0     		beq	.L2
  74              		.loc 1 195 0 discriminator 6
  75 0038 03F58063 		add	r3, r3, #1024
  76 003c 9842     		cmp	r0, r3
  77 003e 0BD0     		beq	.L2
  78              		.loc 1 195 0 discriminator 7
  79 0040 03F58063 		add	r3, r3, #1024
  80 0044 9842     		cmp	r0, r3
  81 0046 07D0     		beq	.L2
  82              		.loc 1 195 0 discriminator 8
  83 0048 03F58063 		add	r3, r3, #1024
  84 004c 9842     		cmp	r0, r3
  85 004e 03D0     		beq	.L2
  86              		.loc 1 195 0 discriminator 9
  87 0050 C321     		movs	r1, #195
  88              	.LVL2:
  89 0052 A348     		ldr	r0, .L34+4
  90              	.LVL3:
  91 0054 FFF7FEFF 		bl	assert_failed
ARM GAS  /tmp/ccEpSy9e.s 			page 6


  92              	.LVL4:
  93              	.L2:
 196:Drivers/STM32F4xx_HAL_Driver/Src/stm32f4xx_hal_gpio.c ****   assert_param(IS_GPIO_PIN(GPIO_Init->Pin));
  94              		.loc 1 196 0 is_stmt 1
  95 0058 3B68     		ldr	r3, [r7]
  96 005a 9AB2     		uxth	r2, r3
  97 005c 12B1     		cbz	r2, .L3
  98              		.loc 1 196 0 is_stmt 0 discriminator 2
  99 005e 1B0C     		lsrs	r3, r3, #16
 100 0060 1B04     		lsls	r3, r3, #16
 101 0062 1BB1     		cbz	r3, .L4
 102              	.L3:
 103              		.loc 1 196 0 discriminator 3
 104 0064 C421     		movs	r1, #196
 105 0066 9E48     		ldr	r0, .L34+4
 106 0068 FFF7FEFF 		bl	assert_failed
 107              	.LVL5:
 108              	.L4:
 197:Drivers/STM32F4xx_HAL_Driver/Src/stm32f4xx_hal_gpio.c ****   assert_param(IS_GPIO_MODE(GPIO_Init->Mode));
 109              		.loc 1 197 0 is_stmt 1
 110 006c 7B68     		ldr	r3, [r7, #4]
 111 006e 012B     		cmp	r3, #1
 112 0070 22D9     		bls	.L5
 113              		.loc 1 197 0 is_stmt 0 discriminator 1
 114 0072 112B     		cmp	r3, #17
 115 0074 20D0     		beq	.L5
 116              		.loc 1 197 0 discriminator 2
 117 0076 022B     		cmp	r3, #2
 118 0078 1ED0     		beq	.L5
 119              		.loc 1 197 0 discriminator 3
 120 007a 122B     		cmp	r3, #18
 121 007c 1CD0     		beq	.L5
 122              		.loc 1 197 0 discriminator 4
 123 007e 994A     		ldr	r2, .L34+8
 124 0080 9342     		cmp	r3, r2
 125 0082 19D0     		beq	.L5
 126              		.loc 1 197 0 discriminator 5
 127 0084 02F58012 		add	r2, r2, #1048576
 128 0088 9342     		cmp	r3, r2
 129 008a 15D0     		beq	.L5
 130              		.loc 1 197 0 discriminator 6
 131 008c 02F58012 		add	r2, r2, #1048576
 132 0090 9342     		cmp	r3, r2
 133 0092 11D0     		beq	.L5
 134              		.loc 1 197 0 discriminator 7
 135 0094 A2F5F812 		sub	r2, r2, #2031616
 136 0098 9342     		cmp	r3, r2
 137 009a 0DD0     		beq	.L5
 138              		.loc 1 197 0 discriminator 8
 139 009c 02F58012 		add	r2, r2, #1048576
 140 00a0 9342     		cmp	r3, r2
 141 00a2 09D0     		beq	.L5
 142              		.loc 1 197 0 discriminator 9
 143 00a4 02F58012 		add	r2, r2, #1048576
 144 00a8 9342     		cmp	r3, r2
 145 00aa 05D0     		beq	.L5
 146              		.loc 1 197 0 discriminator 10
ARM GAS  /tmp/ccEpSy9e.s 			page 7


 147 00ac 032B     		cmp	r3, #3
 148 00ae 03D0     		beq	.L5
 149              		.loc 1 197 0 discriminator 11
 150 00b0 C521     		movs	r1, #197
 151 00b2 8B48     		ldr	r0, .L34+4
 152 00b4 FFF7FEFF 		bl	assert_failed
 153              	.LVL6:
 154              	.L5:
 198:Drivers/STM32F4xx_HAL_Driver/Src/stm32f4xx_hal_gpio.c ****   assert_param(IS_GPIO_PULL(GPIO_Init->Pull));
 155              		.loc 1 198 0 is_stmt 1
 156 00b8 BB68     		ldr	r3, [r7, #8]
 157 00ba 022B     		cmp	r3, #2
 158 00bc 01D8     		bhi	.L30
 159              	.L6:
 199:Drivers/STM32F4xx_HAL_Driver/Src/stm32f4xx_hal_gpio.c **** 
 200:Drivers/STM32F4xx_HAL_Driver/Src/stm32f4xx_hal_gpio.c ****   /* Configure the port pins */
 201:Drivers/STM32F4xx_HAL_Driver/Src/stm32f4xx_hal_gpio.c ****   for(position = 0U; position < GPIO_NUMBER; position++)
 202:Drivers/STM32F4xx_HAL_Driver/Src/stm32f4xx_hal_gpio.c ****   {
 203:Drivers/STM32F4xx_HAL_Driver/Src/stm32f4xx_hal_gpio.c ****     /* Get the IO position */
 204:Drivers/STM32F4xx_HAL_Driver/Src/stm32f4xx_hal_gpio.c ****     ioposition = 0x01U << position;
 205:Drivers/STM32F4xx_HAL_Driver/Src/stm32f4xx_hal_gpio.c ****     /* Get the current IO position */
 206:Drivers/STM32F4xx_HAL_Driver/Src/stm32f4xx_hal_gpio.c ****     iocurrent = (uint32_t)(GPIO_Init->Pin) & ioposition;
 207:Drivers/STM32F4xx_HAL_Driver/Src/stm32f4xx_hal_gpio.c **** 
 208:Drivers/STM32F4xx_HAL_Driver/Src/stm32f4xx_hal_gpio.c ****     if(iocurrent == ioposition)
 209:Drivers/STM32F4xx_HAL_Driver/Src/stm32f4xx_hal_gpio.c ****     {
 210:Drivers/STM32F4xx_HAL_Driver/Src/stm32f4xx_hal_gpio.c ****       /*--------------------- GPIO Mode Configuration ------------------------*/
 211:Drivers/STM32F4xx_HAL_Driver/Src/stm32f4xx_hal_gpio.c ****       /* In case of Alternate function mode selection */
 212:Drivers/STM32F4xx_HAL_Driver/Src/stm32f4xx_hal_gpio.c ****       if((GPIO_Init->Mode == GPIO_MODE_AF_PP) || (GPIO_Init->Mode == GPIO_MODE_AF_OD))
 213:Drivers/STM32F4xx_HAL_Driver/Src/stm32f4xx_hal_gpio.c ****       {
 214:Drivers/STM32F4xx_HAL_Driver/Src/stm32f4xx_hal_gpio.c ****         /* Check the Alternate function parameter */
 215:Drivers/STM32F4xx_HAL_Driver/Src/stm32f4xx_hal_gpio.c ****         assert_param(IS_GPIO_AF(GPIO_Init->Alternate));
 216:Drivers/STM32F4xx_HAL_Driver/Src/stm32f4xx_hal_gpio.c ****         /* Configure Alternate function mapped with the current IO */
 217:Drivers/STM32F4xx_HAL_Driver/Src/stm32f4xx_hal_gpio.c ****         temp = GPIOx->AFR[position >> 3U];
 218:Drivers/STM32F4xx_HAL_Driver/Src/stm32f4xx_hal_gpio.c ****         temp &= ~(0xFU << ((uint32_t)(position & 0x07U) * 4U)) ;
 219:Drivers/STM32F4xx_HAL_Driver/Src/stm32f4xx_hal_gpio.c ****         temp |= ((uint32_t)(GPIO_Init->Alternate) << (((uint32_t)position & 0x07U) * 4U));
 220:Drivers/STM32F4xx_HAL_Driver/Src/stm32f4xx_hal_gpio.c ****         GPIOx->AFR[position >> 3U] = temp;
 221:Drivers/STM32F4xx_HAL_Driver/Src/stm32f4xx_hal_gpio.c ****       }
 222:Drivers/STM32F4xx_HAL_Driver/Src/stm32f4xx_hal_gpio.c **** 
 223:Drivers/STM32F4xx_HAL_Driver/Src/stm32f4xx_hal_gpio.c ****       /* Configure IO Direction mode (Input, Output, Alternate or Analog) */
 224:Drivers/STM32F4xx_HAL_Driver/Src/stm32f4xx_hal_gpio.c ****       temp = GPIOx->MODER;
 225:Drivers/STM32F4xx_HAL_Driver/Src/stm32f4xx_hal_gpio.c ****       temp &= ~(GPIO_MODER_MODER0 << (position * 2U));
 226:Drivers/STM32F4xx_HAL_Driver/Src/stm32f4xx_hal_gpio.c ****       temp |= ((GPIO_Init->Mode & GPIO_MODE) << (position * 2U));
 227:Drivers/STM32F4xx_HAL_Driver/Src/stm32f4xx_hal_gpio.c ****       GPIOx->MODER = temp;
 228:Drivers/STM32F4xx_HAL_Driver/Src/stm32f4xx_hal_gpio.c **** 
 229:Drivers/STM32F4xx_HAL_Driver/Src/stm32f4xx_hal_gpio.c ****       /* In case of Output or Alternate function mode selection */
 230:Drivers/STM32F4xx_HAL_Driver/Src/stm32f4xx_hal_gpio.c ****       if((GPIO_Init->Mode == GPIO_MODE_OUTPUT_PP) || (GPIO_Init->Mode == GPIO_MODE_AF_PP) ||
 231:Drivers/STM32F4xx_HAL_Driver/Src/stm32f4xx_hal_gpio.c ****          (GPIO_Init->Mode == GPIO_MODE_OUTPUT_OD) || (GPIO_Init->Mode == GPIO_MODE_AF_OD))
 232:Drivers/STM32F4xx_HAL_Driver/Src/stm32f4xx_hal_gpio.c ****       {
 233:Drivers/STM32F4xx_HAL_Driver/Src/stm32f4xx_hal_gpio.c ****         /* Check the Speed parameter */
 234:Drivers/STM32F4xx_HAL_Driver/Src/stm32f4xx_hal_gpio.c ****         assert_param(IS_GPIO_SPEED(GPIO_Init->Speed));
 235:Drivers/STM32F4xx_HAL_Driver/Src/stm32f4xx_hal_gpio.c ****         /* Configure the IO Speed */
 236:Drivers/STM32F4xx_HAL_Driver/Src/stm32f4xx_hal_gpio.c ****         temp = GPIOx->OSPEEDR; 
 237:Drivers/STM32F4xx_HAL_Driver/Src/stm32f4xx_hal_gpio.c ****         temp &= ~(GPIO_OSPEEDER_OSPEEDR0 << (position * 2U));
 238:Drivers/STM32F4xx_HAL_Driver/Src/stm32f4xx_hal_gpio.c ****         temp |= (GPIO_Init->Speed << (position * 2U));
 239:Drivers/STM32F4xx_HAL_Driver/Src/stm32f4xx_hal_gpio.c ****         GPIOx->OSPEEDR = temp;
 240:Drivers/STM32F4xx_HAL_Driver/Src/stm32f4xx_hal_gpio.c **** 
 241:Drivers/STM32F4xx_HAL_Driver/Src/stm32f4xx_hal_gpio.c ****         /* Configure the IO Output Type */
ARM GAS  /tmp/ccEpSy9e.s 			page 8


 242:Drivers/STM32F4xx_HAL_Driver/Src/stm32f4xx_hal_gpio.c ****         temp = GPIOx->OTYPER;
 243:Drivers/STM32F4xx_HAL_Driver/Src/stm32f4xx_hal_gpio.c ****         temp &= ~(GPIO_OTYPER_OT_0 << position) ;
 244:Drivers/STM32F4xx_HAL_Driver/Src/stm32f4xx_hal_gpio.c ****         temp |= (((GPIO_Init->Mode & GPIO_OUTPUT_TYPE) >> 4U) << position);
 245:Drivers/STM32F4xx_HAL_Driver/Src/stm32f4xx_hal_gpio.c ****         GPIOx->OTYPER = temp;
 246:Drivers/STM32F4xx_HAL_Driver/Src/stm32f4xx_hal_gpio.c ****       }
 247:Drivers/STM32F4xx_HAL_Driver/Src/stm32f4xx_hal_gpio.c **** 
 248:Drivers/STM32F4xx_HAL_Driver/Src/stm32f4xx_hal_gpio.c ****       /* Activate the Pull-up or Pull down resistor for the current IO */
 249:Drivers/STM32F4xx_HAL_Driver/Src/stm32f4xx_hal_gpio.c ****       temp = GPIOx->PUPDR;
 250:Drivers/STM32F4xx_HAL_Driver/Src/stm32f4xx_hal_gpio.c ****       temp &= ~(GPIO_PUPDR_PUPDR0 << (position * 2U));
 251:Drivers/STM32F4xx_HAL_Driver/Src/stm32f4xx_hal_gpio.c ****       temp |= ((GPIO_Init->Pull) << (position * 2U));
 252:Drivers/STM32F4xx_HAL_Driver/Src/stm32f4xx_hal_gpio.c ****       GPIOx->PUPDR = temp;
 253:Drivers/STM32F4xx_HAL_Driver/Src/stm32f4xx_hal_gpio.c **** 
 254:Drivers/STM32F4xx_HAL_Driver/Src/stm32f4xx_hal_gpio.c ****       /*--------------------- EXTI Mode Configuration ------------------------*/
 255:Drivers/STM32F4xx_HAL_Driver/Src/stm32f4xx_hal_gpio.c ****       /* Configure the External Interrupt or event for the current IO */
 256:Drivers/STM32F4xx_HAL_Driver/Src/stm32f4xx_hal_gpio.c ****       if((GPIO_Init->Mode & EXTI_MODE) == EXTI_MODE)
 257:Drivers/STM32F4xx_HAL_Driver/Src/stm32f4xx_hal_gpio.c ****       {
 258:Drivers/STM32F4xx_HAL_Driver/Src/stm32f4xx_hal_gpio.c ****         /* Enable SYSCFG Clock */
 259:Drivers/STM32F4xx_HAL_Driver/Src/stm32f4xx_hal_gpio.c ****         __HAL_RCC_SYSCFG_CLK_ENABLE();
 260:Drivers/STM32F4xx_HAL_Driver/Src/stm32f4xx_hal_gpio.c **** 
 261:Drivers/STM32F4xx_HAL_Driver/Src/stm32f4xx_hal_gpio.c ****         temp = SYSCFG->EXTICR[position >> 2U];
 262:Drivers/STM32F4xx_HAL_Driver/Src/stm32f4xx_hal_gpio.c ****         temp &= ~(0x0FU << (4U * (position & 0x03U)));
 263:Drivers/STM32F4xx_HAL_Driver/Src/stm32f4xx_hal_gpio.c ****         temp |= ((uint32_t)(GPIO_GET_INDEX(GPIOx)) << (4U * (position & 0x03U)));
 160              		.loc 1 263 0 discriminator 1
 161 00be 0025     		movs	r5, #0
 162 00c0 75E0     		b	.L7
 163              	.L30:
 198:Drivers/STM32F4xx_HAL_Driver/Src/stm32f4xx_hal_gpio.c ****   assert_param(IS_GPIO_PULL(GPIO_Init->Pull));
 164              		.loc 1 198 0 discriminator 1
 165 00c2 C621     		movs	r1, #198
 166 00c4 8648     		ldr	r0, .L34+4
 167 00c6 FFF7FEFF 		bl	assert_failed
 168              	.LVL7:
 169 00ca F8E7     		b	.L6
 170              	.LVL8:
 171              	.L9:
 215:Drivers/STM32F4xx_HAL_Driver/Src/stm32f4xx_hal_gpio.c ****         /* Configure Alternate function mapped with the current IO */
 172              		.loc 1 215 0
 173 00cc 3B69     		ldr	r3, [r7, #16]
 174 00ce FBB1     		cbz	r3, .L11
 215:Drivers/STM32F4xx_HAL_Driver/Src/stm32f4xx_hal_gpio.c ****         /* Configure Alternate function mapped with the current IO */
 175              		.loc 1 215 0 is_stmt 0 discriminator 1
 176 00d0 092B     		cmp	r3, #9
 177 00d2 1DD0     		beq	.L11
 215:Drivers/STM32F4xx_HAL_Driver/Src/stm32f4xx_hal_gpio.c ****         /* Configure Alternate function mapped with the current IO */
 178              		.loc 1 215 0 discriminator 6
 179 00d4 012B     		cmp	r3, #1
 180 00d6 1BD0     		beq	.L11
 215:Drivers/STM32F4xx_HAL_Driver/Src/stm32f4xx_hal_gpio.c ****         /* Configure Alternate function mapped with the current IO */
 181              		.loc 1 215 0 discriminator 8
 182 00d8 022B     		cmp	r3, #2
 183 00da 19D0     		beq	.L11
 215:Drivers/STM32F4xx_HAL_Driver/Src/stm32f4xx_hal_gpio.c ****         /* Configure Alternate function mapped with the current IO */
 184              		.loc 1 215 0 discriminator 11
 185 00dc 032B     		cmp	r3, #3
 186 00de 17D0     		beq	.L11
 215:Drivers/STM32F4xx_HAL_Driver/Src/stm32f4xx_hal_gpio.c ****         /* Configure Alternate function mapped with the current IO */
 187              		.loc 1 215 0 discriminator 12
ARM GAS  /tmp/ccEpSy9e.s 			page 9


 188 00e0 042B     		cmp	r3, #4
 189 00e2 15D0     		beq	.L11
 215:Drivers/STM32F4xx_HAL_Driver/Src/stm32f4xx_hal_gpio.c ****         /* Configure Alternate function mapped with the current IO */
 190              		.loc 1 215 0 discriminator 15
 191 00e4 052B     		cmp	r3, #5
 192 00e6 13D0     		beq	.L11
 215:Drivers/STM32F4xx_HAL_Driver/Src/stm32f4xx_hal_gpio.c ****         /* Configure Alternate function mapped with the current IO */
 193              		.loc 1 215 0 discriminator 18
 194 00e8 062B     		cmp	r3, #6
 195 00ea 11D0     		beq	.L11
 215:Drivers/STM32F4xx_HAL_Driver/Src/stm32f4xx_hal_gpio.c ****         /* Configure Alternate function mapped with the current IO */
 196              		.loc 1 215 0 discriminator 20
 197 00ec 072B     		cmp	r3, #7
 198 00ee 0FD0     		beq	.L11
 215:Drivers/STM32F4xx_HAL_Driver/Src/stm32f4xx_hal_gpio.c ****         /* Configure Alternate function mapped with the current IO */
 199              		.loc 1 215 0 discriminator 23
 200 00f0 082B     		cmp	r3, #8
 201 00f2 0DD0     		beq	.L11
 215:Drivers/STM32F4xx_HAL_Driver/Src/stm32f4xx_hal_gpio.c ****         /* Configure Alternate function mapped with the current IO */
 202              		.loc 1 215 0 discriminator 28
 203 00f4 0A2B     		cmp	r3, #10
 204 00f6 0BD0     		beq	.L11
 215:Drivers/STM32F4xx_HAL_Driver/Src/stm32f4xx_hal_gpio.c ****         /* Configure Alternate function mapped with the current IO */
 205              		.loc 1 215 0 discriminator 30
 206 00f8 0B2B     		cmp	r3, #11
 207 00fa 09D0     		beq	.L11
 215:Drivers/STM32F4xx_HAL_Driver/Src/stm32f4xx_hal_gpio.c ****         /* Configure Alternate function mapped with the current IO */
 208              		.loc 1 215 0 discriminator 31
 209 00fc 0C2B     		cmp	r3, #12
 210 00fe 07D0     		beq	.L11
 215:Drivers/STM32F4xx_HAL_Driver/Src/stm32f4xx_hal_gpio.c ****         /* Configure Alternate function mapped with the current IO */
 211              		.loc 1 215 0 discriminator 33
 212 0100 0D2B     		cmp	r3, #13
 213 0102 05D0     		beq	.L11
 215:Drivers/STM32F4xx_HAL_Driver/Src/stm32f4xx_hal_gpio.c ****         /* Configure Alternate function mapped with the current IO */
 214              		.loc 1 215 0 discriminator 35
 215 0104 0F2B     		cmp	r3, #15
 216 0106 03D0     		beq	.L11
 215:Drivers/STM32F4xx_HAL_Driver/Src/stm32f4xx_hal_gpio.c ****         /* Configure Alternate function mapped with the current IO */
 217              		.loc 1 215 0 discriminator 36
 218 0108 D721     		movs	r1, #215
 219 010a 7548     		ldr	r0, .L34+4
 220 010c FFF7FEFF 		bl	assert_failed
 221              	.LVL9:
 222              	.L11:
 217:Drivers/STM32F4xx_HAL_Driver/Src/stm32f4xx_hal_gpio.c ****         temp &= ~(0xFU << ((uint32_t)(position & 0x07U) * 4U)) ;
 223              		.loc 1 217 0 is_stmt 1
 224 0110 E908     		lsrs	r1, r5, #3
 225 0112 0831     		adds	r1, r1, #8
 226 0114 58F82130 		ldr	r3, [r8, r1, lsl #2]
 227              	.LVL10:
 218:Drivers/STM32F4xx_HAL_Driver/Src/stm32f4xx_hal_gpio.c ****         temp |= ((uint32_t)(GPIO_Init->Alternate) << (((uint32_t)position & 0x07U) * 4U));
 228              		.loc 1 218 0
 229 0118 05F00702 		and	r2, r5, #7
 230 011c 9200     		lsls	r2, r2, #2
 231 011e 0F20     		movs	r0, #15
 232 0120 9040     		lsls	r0, r0, r2
ARM GAS  /tmp/ccEpSy9e.s 			page 10


 233 0122 23EA0003 		bic	r3, r3, r0
 234              	.LVL11:
 219:Drivers/STM32F4xx_HAL_Driver/Src/stm32f4xx_hal_gpio.c ****         GPIOx->AFR[position >> 3U] = temp;
 235              		.loc 1 219 0
 236 0126 3869     		ldr	r0, [r7, #16]
 237 0128 00FA02F2 		lsl	r2, r0, r2
 238 012c 1343     		orrs	r3, r3, r2
 239              	.LVL12:
 220:Drivers/STM32F4xx_HAL_Driver/Src/stm32f4xx_hal_gpio.c ****       }
 240              		.loc 1 220 0
 241 012e 48F82130 		str	r3, [r8, r1, lsl #2]
 242 0132 4CE0     		b	.L10
 243              	.LVL13:
 244              	.L32:
 234:Drivers/STM32F4xx_HAL_Driver/Src/stm32f4xx_hal_gpio.c ****         /* Configure the IO Speed */
 245              		.loc 1 234 0 discriminator 1
 246 0134 EA21     		movs	r1, #234
 247 0136 6A48     		ldr	r0, .L34+4
 248 0138 FFF7FEFF 		bl	assert_failed
 249              	.LVL14:
 250 013c 63E0     		b	.L14
 251              	.LVL15:
 252              	.L33:
 253              		.loc 1 263 0
 254 013e 0721     		movs	r1, #7
 255 0140 00E0     		b	.L15
 256              	.L21:
 257 0142 0021     		movs	r1, #0
 258              	.L15:
 259              		.loc 1 263 0 is_stmt 0 discriminator 32
 260 0144 A140     		lsls	r1, r1, r4
 261 0146 0A43     		orrs	r2, r2, r1
 262              	.LVL16:
 264:Drivers/STM32F4xx_HAL_Driver/Src/stm32f4xx_hal_gpio.c ****         SYSCFG->EXTICR[position >> 2U] = temp;
 263              		.loc 1 264 0 is_stmt 1 discriminator 32
 264 0148 0233     		adds	r3, r3, #2
 265 014a 6749     		ldr	r1, .L34+12
 266 014c 41F82320 		str	r2, [r1, r3, lsl #2]
 265:Drivers/STM32F4xx_HAL_Driver/Src/stm32f4xx_hal_gpio.c **** 
 266:Drivers/STM32F4xx_HAL_Driver/Src/stm32f4xx_hal_gpio.c ****         /* Clear EXTI line configuration */
 267:Drivers/STM32F4xx_HAL_Driver/Src/stm32f4xx_hal_gpio.c ****         temp = EXTI->IMR;
 267              		.loc 1 267 0 discriminator 32
 268 0150 664B     		ldr	r3, .L34+16
 269 0152 1A68     		ldr	r2, [r3]
 270              	.LVL17:
 268:Drivers/STM32F4xx_HAL_Driver/Src/stm32f4xx_hal_gpio.c ****         temp &= ~((uint32_t)iocurrent);
 271              		.loc 1 268 0 discriminator 32
 272 0154 6FEA0903 		mvn	r3, r9
 273 0158 02EA0301 		and	r1, r2, r3
 274              	.LVL18:
 269:Drivers/STM32F4xx_HAL_Driver/Src/stm32f4xx_hal_gpio.c ****         if((GPIO_Init->Mode & GPIO_MODE_IT) == GPIO_MODE_IT)
 275              		.loc 1 269 0 discriminator 32
 276 015c 7868     		ldr	r0, [r7, #4]
 277 015e 10F4803F 		tst	r0, #65536
 278 0162 01D0     		beq	.L16
 270:Drivers/STM32F4xx_HAL_Driver/Src/stm32f4xx_hal_gpio.c ****         {
 271:Drivers/STM32F4xx_HAL_Driver/Src/stm32f4xx_hal_gpio.c ****           temp |= iocurrent;
ARM GAS  /tmp/ccEpSy9e.s 			page 11


 279              		.loc 1 271 0
 280 0164 49EA0201 		orr	r1, r9, r2
 281              	.LVL19:
 282              	.L16:
 272:Drivers/STM32F4xx_HAL_Driver/Src/stm32f4xx_hal_gpio.c ****         }
 273:Drivers/STM32F4xx_HAL_Driver/Src/stm32f4xx_hal_gpio.c ****         EXTI->IMR = temp;
 283              		.loc 1 273 0
 284 0168 604A     		ldr	r2, .L34+16
 285 016a 1160     		str	r1, [r2]
 274:Drivers/STM32F4xx_HAL_Driver/Src/stm32f4xx_hal_gpio.c **** 
 275:Drivers/STM32F4xx_HAL_Driver/Src/stm32f4xx_hal_gpio.c ****         temp = EXTI->EMR;
 286              		.loc 1 275 0
 287 016c 5268     		ldr	r2, [r2, #4]
 288              	.LVL20:
 276:Drivers/STM32F4xx_HAL_Driver/Src/stm32f4xx_hal_gpio.c ****         temp &= ~((uint32_t)iocurrent);
 289              		.loc 1 276 0
 290 016e 03EA0201 		and	r1, r3, r2
 291              	.LVL21:
 277:Drivers/STM32F4xx_HAL_Driver/Src/stm32f4xx_hal_gpio.c ****         if((GPIO_Init->Mode & GPIO_MODE_EVT) == GPIO_MODE_EVT)
 292              		.loc 1 277 0
 293 0172 7868     		ldr	r0, [r7, #4]
 294 0174 10F4003F 		tst	r0, #131072
 295 0178 01D0     		beq	.L17
 278:Drivers/STM32F4xx_HAL_Driver/Src/stm32f4xx_hal_gpio.c ****         {
 279:Drivers/STM32F4xx_HAL_Driver/Src/stm32f4xx_hal_gpio.c ****           temp |= iocurrent;
 296              		.loc 1 279 0
 297 017a 49EA0201 		orr	r1, r9, r2
 298              	.LVL22:
 299              	.L17:
 280:Drivers/STM32F4xx_HAL_Driver/Src/stm32f4xx_hal_gpio.c ****         }
 281:Drivers/STM32F4xx_HAL_Driver/Src/stm32f4xx_hal_gpio.c ****         EXTI->EMR = temp;
 300              		.loc 1 281 0
 301 017e 5B4A     		ldr	r2, .L34+16
 302 0180 5160     		str	r1, [r2, #4]
 282:Drivers/STM32F4xx_HAL_Driver/Src/stm32f4xx_hal_gpio.c **** 
 283:Drivers/STM32F4xx_HAL_Driver/Src/stm32f4xx_hal_gpio.c ****         /* Clear Rising Falling edge configuration */
 284:Drivers/STM32F4xx_HAL_Driver/Src/stm32f4xx_hal_gpio.c ****         temp = EXTI->RTSR;
 303              		.loc 1 284 0
 304 0182 9268     		ldr	r2, [r2, #8]
 305              	.LVL23:
 285:Drivers/STM32F4xx_HAL_Driver/Src/stm32f4xx_hal_gpio.c ****         temp &= ~((uint32_t)iocurrent);
 306              		.loc 1 285 0
 307 0184 03EA0201 		and	r1, r3, r2
 308              	.LVL24:
 286:Drivers/STM32F4xx_HAL_Driver/Src/stm32f4xx_hal_gpio.c ****         if((GPIO_Init->Mode & RISING_EDGE) == RISING_EDGE)
 309              		.loc 1 286 0
 310 0188 7868     		ldr	r0, [r7, #4]
 311 018a 10F4801F 		tst	r0, #1048576
 312 018e 01D0     		beq	.L18
 287:Drivers/STM32F4xx_HAL_Driver/Src/stm32f4xx_hal_gpio.c ****         {
 288:Drivers/STM32F4xx_HAL_Driver/Src/stm32f4xx_hal_gpio.c ****           temp |= iocurrent;
 313              		.loc 1 288 0
 314 0190 49EA0201 		orr	r1, r9, r2
 315              	.LVL25:
 316              	.L18:
 289:Drivers/STM32F4xx_HAL_Driver/Src/stm32f4xx_hal_gpio.c ****         }
 290:Drivers/STM32F4xx_HAL_Driver/Src/stm32f4xx_hal_gpio.c ****         EXTI->RTSR = temp;
ARM GAS  /tmp/ccEpSy9e.s 			page 12


 317              		.loc 1 290 0
 318 0194 554A     		ldr	r2, .L34+16
 319 0196 9160     		str	r1, [r2, #8]
 291:Drivers/STM32F4xx_HAL_Driver/Src/stm32f4xx_hal_gpio.c **** 
 292:Drivers/STM32F4xx_HAL_Driver/Src/stm32f4xx_hal_gpio.c ****         temp = EXTI->FTSR;
 320              		.loc 1 292 0
 321 0198 D268     		ldr	r2, [r2, #12]
 322              	.LVL26:
 293:Drivers/STM32F4xx_HAL_Driver/Src/stm32f4xx_hal_gpio.c ****         temp &= ~((uint32_t)iocurrent);
 323              		.loc 1 293 0
 324 019a 1340     		ands	r3, r3, r2
 325              	.LVL27:
 294:Drivers/STM32F4xx_HAL_Driver/Src/stm32f4xx_hal_gpio.c ****         if((GPIO_Init->Mode & FALLING_EDGE) == FALLING_EDGE)
 326              		.loc 1 294 0
 327 019c 7968     		ldr	r1, [r7, #4]
 328 019e 11F4001F 		tst	r1, #2097152
 329 01a2 01D0     		beq	.L19
 295:Drivers/STM32F4xx_HAL_Driver/Src/stm32f4xx_hal_gpio.c ****         {
 296:Drivers/STM32F4xx_HAL_Driver/Src/stm32f4xx_hal_gpio.c ****           temp |= iocurrent;
 330              		.loc 1 296 0
 331 01a4 49EA0203 		orr	r3, r9, r2
 332              	.LVL28:
 333              	.L19:
 297:Drivers/STM32F4xx_HAL_Driver/Src/stm32f4xx_hal_gpio.c ****         }
 298:Drivers/STM32F4xx_HAL_Driver/Src/stm32f4xx_hal_gpio.c ****         EXTI->FTSR = temp;
 334              		.loc 1 298 0
 335 01a8 504A     		ldr	r2, .L34+16
 336 01aa D360     		str	r3, [r2, #12]
 337              	.LVL29:
 338              	.L8:
 201:Drivers/STM32F4xx_HAL_Driver/Src/stm32f4xx_hal_gpio.c ****   {
 339              		.loc 1 201 0 discriminator 2
 340 01ac 0135     		adds	r5, r5, #1
 341              	.LVL30:
 342              	.L7:
 201:Drivers/STM32F4xx_HAL_Driver/Src/stm32f4xx_hal_gpio.c ****   {
 343              		.loc 1 201 0 is_stmt 0 discriminator 1
 344 01ae 0F2D     		cmp	r5, #15
 345 01b0 00F29080 		bhi	.L31
 204:Drivers/STM32F4xx_HAL_Driver/Src/stm32f4xx_hal_gpio.c ****     /* Get the current IO position */
 346              		.loc 1 204 0 is_stmt 1
 347 01b4 0124     		movs	r4, #1
 348 01b6 AC40     		lsls	r4, r4, r5
 349              	.LVL31:
 206:Drivers/STM32F4xx_HAL_Driver/Src/stm32f4xx_hal_gpio.c **** 
 350              		.loc 1 206 0
 351 01b8 3B68     		ldr	r3, [r7]
 352 01ba 04EA0309 		and	r9, r4, r3
 353              	.LVL32:
 208:Drivers/STM32F4xx_HAL_Driver/Src/stm32f4xx_hal_gpio.c ****     {
 354              		.loc 1 208 0
 355 01be 4C45     		cmp	r4, r9
 356 01c0 F4D1     		bne	.L8
 212:Drivers/STM32F4xx_HAL_Driver/Src/stm32f4xx_hal_gpio.c ****       {
 357              		.loc 1 212 0
 358 01c2 7B68     		ldr	r3, [r7, #4]
 359 01c4 022B     		cmp	r3, #2
ARM GAS  /tmp/ccEpSy9e.s 			page 13


 360 01c6 81D0     		beq	.L9
 212:Drivers/STM32F4xx_HAL_Driver/Src/stm32f4xx_hal_gpio.c ****       {
 361              		.loc 1 212 0 is_stmt 0 discriminator 1
 362 01c8 122B     		cmp	r3, #18
 363 01ca 3FF47FAF 		beq	.L9
 364              	.L10:
 224:Drivers/STM32F4xx_HAL_Driver/Src/stm32f4xx_hal_gpio.c ****       temp &= ~(GPIO_MODER_MODER0 << (position * 2U));
 365              		.loc 1 224 0 is_stmt 1
 366 01ce D8F80030 		ldr	r3, [r8]
 367              	.LVL33:
 225:Drivers/STM32F4xx_HAL_Driver/Src/stm32f4xx_hal_gpio.c ****       temp |= ((GPIO_Init->Mode & GPIO_MODE) << (position * 2U));
 368              		.loc 1 225 0
 369 01d2 4FEA450A 		lsl	r10, r5, #1
 370 01d6 0326     		movs	r6, #3
 371 01d8 06FA0AF6 		lsl	r6, r6, r10
 372 01dc F643     		mvns	r6, r6
 373 01de 3340     		ands	r3, r3, r6
 374              	.LVL34:
 226:Drivers/STM32F4xx_HAL_Driver/Src/stm32f4xx_hal_gpio.c ****       GPIOx->MODER = temp;
 375              		.loc 1 226 0
 376 01e0 7A68     		ldr	r2, [r7, #4]
 377 01e2 02F00302 		and	r2, r2, #3
 378 01e6 02FA0AF2 		lsl	r2, r2, r10
 379 01ea 1343     		orrs	r3, r3, r2
 380              	.LVL35:
 227:Drivers/STM32F4xx_HAL_Driver/Src/stm32f4xx_hal_gpio.c **** 
 381              		.loc 1 227 0
 382 01ec C8F80030 		str	r3, [r8]
 230:Drivers/STM32F4xx_HAL_Driver/Src/stm32f4xx_hal_gpio.c ****          (GPIO_Init->Mode == GPIO_MODE_OUTPUT_OD) || (GPIO_Init->Mode == GPIO_MODE_AF_OD))
 383              		.loc 1 230 0
 384 01f0 7B68     		ldr	r3, [r7, #4]
 385              	.LVL36:
 386 01f2 5A1E     		subs	r2, r3, #1
 387 01f4 012A     		cmp	r2, #1
 388 01f6 03D9     		bls	.L12
 230:Drivers/STM32F4xx_HAL_Driver/Src/stm32f4xx_hal_gpio.c ****          (GPIO_Init->Mode == GPIO_MODE_OUTPUT_OD) || (GPIO_Init->Mode == GPIO_MODE_AF_OD))
 389              		.loc 1 230 0 is_stmt 0 discriminator 1
 390 01f8 112B     		cmp	r3, #17
 391 01fa 01D0     		beq	.L12
 231:Drivers/STM32F4xx_HAL_Driver/Src/stm32f4xx_hal_gpio.c ****       {
 392              		.loc 1 231 0 is_stmt 1
 393 01fc 122B     		cmp	r3, #18
 394 01fe 16D1     		bne	.L13
 395              	.L12:
 234:Drivers/STM32F4xx_HAL_Driver/Src/stm32f4xx_hal_gpio.c ****         /* Configure the IO Speed */
 396              		.loc 1 234 0
 397 0200 FB68     		ldr	r3, [r7, #12]
 398 0202 032B     		cmp	r3, #3
 399 0204 96D8     		bhi	.L32
 400              	.LVL37:
 401              	.L14:
 236:Drivers/STM32F4xx_HAL_Driver/Src/stm32f4xx_hal_gpio.c ****         temp &= ~(GPIO_OSPEEDER_OSPEEDR0 << (position * 2U));
 402              		.loc 1 236 0
 403 0206 D8F80830 		ldr	r3, [r8, #8]
 404              	.LVL38:
 237:Drivers/STM32F4xx_HAL_Driver/Src/stm32f4xx_hal_gpio.c ****         temp |= (GPIO_Init->Speed << (position * 2U));
 405              		.loc 1 237 0
ARM GAS  /tmp/ccEpSy9e.s 			page 14


 406 020a 3340     		ands	r3, r3, r6
 407              	.LVL39:
 238:Drivers/STM32F4xx_HAL_Driver/Src/stm32f4xx_hal_gpio.c ****         GPIOx->OSPEEDR = temp;
 408              		.loc 1 238 0
 409 020c FA68     		ldr	r2, [r7, #12]
 410 020e 02FA0AF2 		lsl	r2, r2, r10
 411 0212 1343     		orrs	r3, r3, r2
 412              	.LVL40:
 239:Drivers/STM32F4xx_HAL_Driver/Src/stm32f4xx_hal_gpio.c **** 
 413              		.loc 1 239 0
 414 0214 C8F80830 		str	r3, [r8, #8]
 242:Drivers/STM32F4xx_HAL_Driver/Src/stm32f4xx_hal_gpio.c ****         temp &= ~(GPIO_OTYPER_OT_0 << position) ;
 415              		.loc 1 242 0
 416 0218 D8F80430 		ldr	r3, [r8, #4]
 417              	.LVL41:
 243:Drivers/STM32F4xx_HAL_Driver/Src/stm32f4xx_hal_gpio.c ****         temp |= (((GPIO_Init->Mode & GPIO_OUTPUT_TYPE) >> 4U) << position);
 418              		.loc 1 243 0
 419 021c 23EA0404 		bic	r4, r3, r4
 420              	.LVL42:
 244:Drivers/STM32F4xx_HAL_Driver/Src/stm32f4xx_hal_gpio.c ****         GPIOx->OTYPER = temp;
 421              		.loc 1 244 0
 422 0220 7B68     		ldr	r3, [r7, #4]
 423 0222 C3F30013 		ubfx	r3, r3, #4, #1
 424 0226 AB40     		lsls	r3, r3, r5
 425 0228 1C43     		orrs	r4, r4, r3
 426              	.LVL43:
 245:Drivers/STM32F4xx_HAL_Driver/Src/stm32f4xx_hal_gpio.c ****       }
 427              		.loc 1 245 0
 428 022a C8F80440 		str	r4, [r8, #4]
 429              	.LVL44:
 430              	.L13:
 249:Drivers/STM32F4xx_HAL_Driver/Src/stm32f4xx_hal_gpio.c ****       temp &= ~(GPIO_PUPDR_PUPDR0 << (position * 2U));
 431              		.loc 1 249 0
 432 022e D8F80C30 		ldr	r3, [r8, #12]
 433              	.LVL45:
 250:Drivers/STM32F4xx_HAL_Driver/Src/stm32f4xx_hal_gpio.c ****       temp |= ((GPIO_Init->Pull) << (position * 2U));
 434              		.loc 1 250 0
 435 0232 1E40     		ands	r6, r6, r3
 436              	.LVL46:
 251:Drivers/STM32F4xx_HAL_Driver/Src/stm32f4xx_hal_gpio.c ****       GPIOx->PUPDR = temp;
 437              		.loc 1 251 0
 438 0234 BB68     		ldr	r3, [r7, #8]
 439 0236 03FA0AF3 		lsl	r3, r3, r10
 440 023a 1E43     		orrs	r6, r6, r3
 441              	.LVL47:
 252:Drivers/STM32F4xx_HAL_Driver/Src/stm32f4xx_hal_gpio.c **** 
 442              		.loc 1 252 0
 443 023c C8F80C60 		str	r6, [r8, #12]
 256:Drivers/STM32F4xx_HAL_Driver/Src/stm32f4xx_hal_gpio.c ****       {
 444              		.loc 1 256 0
 445 0240 7B68     		ldr	r3, [r7, #4]
 446 0242 13F0805F 		tst	r3, #268435456
 447 0246 B1D0     		beq	.L8
 448              	.LBB2:
 259:Drivers/STM32F4xx_HAL_Driver/Src/stm32f4xx_hal_gpio.c **** 
 449              		.loc 1 259 0
 450 0248 0023     		movs	r3, #0
ARM GAS  /tmp/ccEpSy9e.s 			page 15


 451 024a 0193     		str	r3, [sp, #4]
 452 024c 284B     		ldr	r3, .L34+20
 453 024e 5A6C     		ldr	r2, [r3, #68]
 454 0250 42F48042 		orr	r2, r2, #16384
 455 0254 5A64     		str	r2, [r3, #68]
 456 0256 5B6C     		ldr	r3, [r3, #68]
 457 0258 03F48043 		and	r3, r3, #16384
 458 025c 0193     		str	r3, [sp, #4]
 459 025e 019B     		ldr	r3, [sp, #4]
 460              	.LBE2:
 261:Drivers/STM32F4xx_HAL_Driver/Src/stm32f4xx_hal_gpio.c ****         temp &= ~(0x0FU << (4U * (position & 0x03U)));
 461              		.loc 1 261 0
 462 0260 AB08     		lsrs	r3, r5, #2
 463 0262 991C     		adds	r1, r3, #2
 464 0264 204A     		ldr	r2, .L34+12
 465 0266 52F82120 		ldr	r2, [r2, r1, lsl #2]
 466              	.LVL48:
 262:Drivers/STM32F4xx_HAL_Driver/Src/stm32f4xx_hal_gpio.c ****         temp |= ((uint32_t)(GPIO_GET_INDEX(GPIOx)) << (4U * (position & 0x03U)));
 467              		.loc 1 262 0
 468 026a 05F00301 		and	r1, r5, #3
 469 026e 8C00     		lsls	r4, r1, #2
 470 0270 0F21     		movs	r1, #15
 471 0272 A140     		lsls	r1, r1, r4
 472 0274 22EA0102 		bic	r2, r2, r1
 473              	.LVL49:
 263:Drivers/STM32F4xx_HAL_Driver/Src/stm32f4xx_hal_gpio.c ****         SYSCFG->EXTICR[position >> 2U] = temp;
 474              		.loc 1 263 0
 475 0278 1848     		ldr	r0, .L34
 476 027a 8045     		cmp	r8, r0
 477 027c 3FF461AF 		beq	.L21
 263:Drivers/STM32F4xx_HAL_Driver/Src/stm32f4xx_hal_gpio.c ****         SYSCFG->EXTICR[position >> 2U] = temp;
 478              		.loc 1 263 0 is_stmt 0 discriminator 1
 479 0280 1C49     		ldr	r1, .L34+24
 480 0282 8845     		cmp	r8, r1
 481 0284 1AD0     		beq	.L22
 263:Drivers/STM32F4xx_HAL_Driver/Src/stm32f4xx_hal_gpio.c ****         SYSCFG->EXTICR[position >> 2U] = temp;
 482              		.loc 1 263 0 discriminator 3
 483 0286 01F58061 		add	r1, r1, #1024
 484 028a 8845     		cmp	r8, r1
 485 028c 18D0     		beq	.L23
 263:Drivers/STM32F4xx_HAL_Driver/Src/stm32f4xx_hal_gpio.c ****         SYSCFG->EXTICR[position >> 2U] = temp;
 486              		.loc 1 263 0 discriminator 5
 487 028e 01F58061 		add	r1, r1, #1024
 488 0292 8845     		cmp	r8, r1
 489 0294 16D0     		beq	.L24
 263:Drivers/STM32F4xx_HAL_Driver/Src/stm32f4xx_hal_gpio.c ****         SYSCFG->EXTICR[position >> 2U] = temp;
 490              		.loc 1 263 0 discriminator 7
 491 0296 01F58061 		add	r1, r1, #1024
 492 029a 8845     		cmp	r8, r1
 493 029c 14D0     		beq	.L25
 263:Drivers/STM32F4xx_HAL_Driver/Src/stm32f4xx_hal_gpio.c ****         SYSCFG->EXTICR[position >> 2U] = temp;
 494              		.loc 1 263 0 discriminator 9
 495 029e 01F58061 		add	r1, r1, #1024
 496 02a2 8845     		cmp	r8, r1
 497 02a4 12D0     		beq	.L26
 263:Drivers/STM32F4xx_HAL_Driver/Src/stm32f4xx_hal_gpio.c ****         SYSCFG->EXTICR[position >> 2U] = temp;
 498              		.loc 1 263 0 discriminator 11
ARM GAS  /tmp/ccEpSy9e.s 			page 16


 499 02a6 01F58061 		add	r1, r1, #1024
 500 02aa 8845     		cmp	r8, r1
 501 02ac 10D0     		beq	.L27
 263:Drivers/STM32F4xx_HAL_Driver/Src/stm32f4xx_hal_gpio.c ****         SYSCFG->EXTICR[position >> 2U] = temp;
 502              		.loc 1 263 0 discriminator 13
 503 02ae 01F58061 		add	r1, r1, #1024
 504 02b2 8845     		cmp	r8, r1
 505 02b4 3FF443AF 		beq	.L33
 263:Drivers/STM32F4xx_HAL_Driver/Src/stm32f4xx_hal_gpio.c ****         SYSCFG->EXTICR[position >> 2U] = temp;
 506              		.loc 1 263 0
 507 02b8 0821     		movs	r1, #8
 508 02ba 43E7     		b	.L15
 509              	.L22:
 510 02bc 0121     		movs	r1, #1
 511              	.LVL50:
 512 02be 41E7     		b	.L15
 513              	.LVL51:
 514              	.L23:
 515 02c0 0221     		movs	r1, #2
 516 02c2 3FE7     		b	.L15
 517              	.L24:
 518 02c4 0321     		movs	r1, #3
 519 02c6 3DE7     		b	.L15
 520              	.L25:
 521 02c8 0421     		movs	r1, #4
 522 02ca 3BE7     		b	.L15
 523              	.L26:
 524 02cc 0521     		movs	r1, #5
 525 02ce 39E7     		b	.L15
 526              	.L27:
 527 02d0 0621     		movs	r1, #6
 528 02d2 37E7     		b	.L15
 529              	.LVL52:
 530              	.L31:
 299:Drivers/STM32F4xx_HAL_Driver/Src/stm32f4xx_hal_gpio.c ****       }
 300:Drivers/STM32F4xx_HAL_Driver/Src/stm32f4xx_hal_gpio.c ****     }
 301:Drivers/STM32F4xx_HAL_Driver/Src/stm32f4xx_hal_gpio.c ****   }
 302:Drivers/STM32F4xx_HAL_Driver/Src/stm32f4xx_hal_gpio.c **** }
 531              		.loc 1 302 0 is_stmt 1
 532 02d4 02B0     		add	sp, sp, #8
 533              	.LCFI2:
 534              		.cfi_def_cfa_offset 32
 535              		@ sp needed
 536 02d6 BDE8F087 		pop	{r4, r5, r6, r7, r8, r9, r10, pc}
 537              	.LVL53:
 538              	.L35:
 539 02da 00BF     		.align	2
 540              	.L34:
 541 02dc 00000240 		.word	1073872896
 542 02e0 00000000 		.word	.LC0
 543 02e4 00001110 		.word	269549568
 544 02e8 00380140 		.word	1073821696
 545 02ec 003C0140 		.word	1073822720
 546 02f0 00380240 		.word	1073887232
 547 02f4 00040240 		.word	1073873920
 548              		.cfi_endproc
 549              	.LFE123:
ARM GAS  /tmp/ccEpSy9e.s 			page 17


 551              		.section	.text.HAL_GPIO_DeInit,"ax",%progbits
 552              		.align	1
 553              		.global	HAL_GPIO_DeInit
 554              		.syntax unified
 555              		.thumb
 556              		.thumb_func
 557              		.fpu fpv4-sp-d16
 559              	HAL_GPIO_DeInit:
 560              	.LFB124:
 303:Drivers/STM32F4xx_HAL_Driver/Src/stm32f4xx_hal_gpio.c **** 
 304:Drivers/STM32F4xx_HAL_Driver/Src/stm32f4xx_hal_gpio.c **** /**
 305:Drivers/STM32F4xx_HAL_Driver/Src/stm32f4xx_hal_gpio.c ****   * @brief  De-initializes the GPIOx peripheral registers to their default reset values.
 306:Drivers/STM32F4xx_HAL_Driver/Src/stm32f4xx_hal_gpio.c ****   * @param  GPIOx where x can be (A..K) to select the GPIO peripheral for STM32F429X device or
 307:Drivers/STM32F4xx_HAL_Driver/Src/stm32f4xx_hal_gpio.c ****   *                      x can be (A..I) to select the GPIO peripheral for STM32F40XX and STM32F427
 308:Drivers/STM32F4xx_HAL_Driver/Src/stm32f4xx_hal_gpio.c ****   * @param  GPIO_Pin specifies the port bit to be written.
 309:Drivers/STM32F4xx_HAL_Driver/Src/stm32f4xx_hal_gpio.c ****   *          This parameter can be one of GPIO_PIN_x where x can be (0..15).
 310:Drivers/STM32F4xx_HAL_Driver/Src/stm32f4xx_hal_gpio.c ****   * @retval None
 311:Drivers/STM32F4xx_HAL_Driver/Src/stm32f4xx_hal_gpio.c ****   */
 312:Drivers/STM32F4xx_HAL_Driver/Src/stm32f4xx_hal_gpio.c **** void HAL_GPIO_DeInit(GPIO_TypeDef  *GPIOx, uint32_t GPIO_Pin)
 313:Drivers/STM32F4xx_HAL_Driver/Src/stm32f4xx_hal_gpio.c **** {
 561              		.loc 1 313 0
 562              		.cfi_startproc
 563              		@ args = 0, pretend = 0, frame = 0
 564              		@ frame_needed = 0, uses_anonymous_args = 0
 565              	.LVL54:
 566 0000 F8B5     		push	{r3, r4, r5, r6, r7, lr}
 567              	.LCFI3:
 568              		.cfi_def_cfa_offset 24
 569              		.cfi_offset 3, -24
 570              		.cfi_offset 4, -20
 571              		.cfi_offset 5, -16
 572              		.cfi_offset 6, -12
 573              		.cfi_offset 7, -8
 574              		.cfi_offset 14, -4
 575 0002 0446     		mov	r4, r0
 576 0004 0D46     		mov	r5, r1
 577              	.LVL55:
 314:Drivers/STM32F4xx_HAL_Driver/Src/stm32f4xx_hal_gpio.c ****   uint32_t position;
 315:Drivers/STM32F4xx_HAL_Driver/Src/stm32f4xx_hal_gpio.c ****   uint32_t ioposition = 0x00U;
 316:Drivers/STM32F4xx_HAL_Driver/Src/stm32f4xx_hal_gpio.c ****   uint32_t iocurrent = 0x00U;
 317:Drivers/STM32F4xx_HAL_Driver/Src/stm32f4xx_hal_gpio.c ****   uint32_t tmp = 0x00U;
 318:Drivers/STM32F4xx_HAL_Driver/Src/stm32f4xx_hal_gpio.c **** 
 319:Drivers/STM32F4xx_HAL_Driver/Src/stm32f4xx_hal_gpio.c ****   /* Check the parameters */
 320:Drivers/STM32F4xx_HAL_Driver/Src/stm32f4xx_hal_gpio.c ****   assert_param(IS_GPIO_ALL_INSTANCE(GPIOx));
 578              		.loc 1 320 0
 579 0006 564B     		ldr	r3, .L54
 580 0008 9842     		cmp	r0, r3
 581 000a 24D0     		beq	.L37
 582              		.loc 1 320 0 is_stmt 0 discriminator 1
 583 000c 03F58063 		add	r3, r3, #1024
 584 0010 9842     		cmp	r0, r3
 585 0012 20D0     		beq	.L37
 586              		.loc 1 320 0 discriminator 2
 587 0014 03F58063 		add	r3, r3, #1024
 588 0018 9842     		cmp	r0, r3
 589 001a 1CD0     		beq	.L37
 590              		.loc 1 320 0 discriminator 3
ARM GAS  /tmp/ccEpSy9e.s 			page 18


 591 001c 03F58063 		add	r3, r3, #1024
 592 0020 9842     		cmp	r0, r3
 593 0022 18D0     		beq	.L37
 594              		.loc 1 320 0 discriminator 4
 595 0024 03F58063 		add	r3, r3, #1024
 596 0028 9842     		cmp	r0, r3
 597 002a 14D0     		beq	.L37
 598              		.loc 1 320 0 discriminator 5
 599 002c 03F58063 		add	r3, r3, #1024
 600 0030 9842     		cmp	r0, r3
 601 0032 10D0     		beq	.L37
 602              		.loc 1 320 0 discriminator 6
 603 0034 03F58063 		add	r3, r3, #1024
 604 0038 9842     		cmp	r0, r3
 605 003a 0CD0     		beq	.L37
 606              		.loc 1 320 0 discriminator 7
 607 003c 03F58063 		add	r3, r3, #1024
 608 0040 9842     		cmp	r0, r3
 609 0042 08D0     		beq	.L37
 610              		.loc 1 320 0 discriminator 8
 611 0044 03F58063 		add	r3, r3, #1024
 612 0048 9842     		cmp	r0, r3
 613 004a 04D0     		beq	.L37
 614              		.loc 1 320 0 discriminator 9
 615 004c 4FF4A071 		mov	r1, #320
 616              	.LVL56:
 617 0050 4448     		ldr	r0, .L54+4
 618              	.LVL57:
 619 0052 FFF7FEFF 		bl	assert_failed
 620              	.LVL58:
 621              	.L37:
 321:Drivers/STM32F4xx_HAL_Driver/Src/stm32f4xx_hal_gpio.c ****   
 322:Drivers/STM32F4xx_HAL_Driver/Src/stm32f4xx_hal_gpio.c ****   /* Configure the port pins */
 323:Drivers/STM32F4xx_HAL_Driver/Src/stm32f4xx_hal_gpio.c ****   for(position = 0U; position < GPIO_NUMBER; position++)
 324:Drivers/STM32F4xx_HAL_Driver/Src/stm32f4xx_hal_gpio.c ****   {
 325:Drivers/STM32F4xx_HAL_Driver/Src/stm32f4xx_hal_gpio.c ****     /* Get the IO position */
 326:Drivers/STM32F4xx_HAL_Driver/Src/stm32f4xx_hal_gpio.c ****     ioposition = 0x01U << position;
 327:Drivers/STM32F4xx_HAL_Driver/Src/stm32f4xx_hal_gpio.c ****     /* Get the current IO position */
 328:Drivers/STM32F4xx_HAL_Driver/Src/stm32f4xx_hal_gpio.c ****     iocurrent = (GPIO_Pin) & ioposition;
 329:Drivers/STM32F4xx_HAL_Driver/Src/stm32f4xx_hal_gpio.c **** 
 330:Drivers/STM32F4xx_HAL_Driver/Src/stm32f4xx_hal_gpio.c ****     if(iocurrent == ioposition)
 331:Drivers/STM32F4xx_HAL_Driver/Src/stm32f4xx_hal_gpio.c ****     {
 332:Drivers/STM32F4xx_HAL_Driver/Src/stm32f4xx_hal_gpio.c ****       /*------------------------- GPIO Mode Configuration --------------------*/
 333:Drivers/STM32F4xx_HAL_Driver/Src/stm32f4xx_hal_gpio.c ****       /* Configure IO Direction in Input Floating Mode */
 334:Drivers/STM32F4xx_HAL_Driver/Src/stm32f4xx_hal_gpio.c ****       GPIOx->MODER &= ~(GPIO_MODER_MODER0 << (position * 2U));
 335:Drivers/STM32F4xx_HAL_Driver/Src/stm32f4xx_hal_gpio.c **** 
 336:Drivers/STM32F4xx_HAL_Driver/Src/stm32f4xx_hal_gpio.c ****       /* Configure the default Alternate Function in current IO */
 337:Drivers/STM32F4xx_HAL_Driver/Src/stm32f4xx_hal_gpio.c ****       GPIOx->AFR[position >> 3U] &= ~(0xFU << ((uint32_t)(position & 0x07U) * 4U)) ;
 338:Drivers/STM32F4xx_HAL_Driver/Src/stm32f4xx_hal_gpio.c **** 
 339:Drivers/STM32F4xx_HAL_Driver/Src/stm32f4xx_hal_gpio.c ****       /* Configure the default value for IO Speed */
 340:Drivers/STM32F4xx_HAL_Driver/Src/stm32f4xx_hal_gpio.c ****       GPIOx->OSPEEDR &= ~(GPIO_OSPEEDER_OSPEEDR0 << (position * 2U));
 341:Drivers/STM32F4xx_HAL_Driver/Src/stm32f4xx_hal_gpio.c **** 
 342:Drivers/STM32F4xx_HAL_Driver/Src/stm32f4xx_hal_gpio.c ****       /* Configure the default value IO Output Type */
 343:Drivers/STM32F4xx_HAL_Driver/Src/stm32f4xx_hal_gpio.c ****       GPIOx->OTYPER  &= ~(GPIO_OTYPER_OT_0 << position) ;
 344:Drivers/STM32F4xx_HAL_Driver/Src/stm32f4xx_hal_gpio.c **** 
 345:Drivers/STM32F4xx_HAL_Driver/Src/stm32f4xx_hal_gpio.c ****       /* Deactivate the Pull-up and Pull-down resistor for the current IO */
 346:Drivers/STM32F4xx_HAL_Driver/Src/stm32f4xx_hal_gpio.c ****       GPIOx->PUPDR &= ~(GPIO_PUPDR_PUPDR0 << (position * 2U));
ARM GAS  /tmp/ccEpSy9e.s 			page 19


 347:Drivers/STM32F4xx_HAL_Driver/Src/stm32f4xx_hal_gpio.c **** 
 348:Drivers/STM32F4xx_HAL_Driver/Src/stm32f4xx_hal_gpio.c ****       /*------------------------- EXTI Mode Configuration --------------------*/
 349:Drivers/STM32F4xx_HAL_Driver/Src/stm32f4xx_hal_gpio.c ****       tmp = SYSCFG->EXTICR[position >> 2U];
 350:Drivers/STM32F4xx_HAL_Driver/Src/stm32f4xx_hal_gpio.c ****       tmp &= (0x0FU << (4U * (position & 0x03U)));
 351:Drivers/STM32F4xx_HAL_Driver/Src/stm32f4xx_hal_gpio.c ****       if(tmp == ((uint32_t)(GPIO_GET_INDEX(GPIOx)) << (4U * (position & 0x03U))))
 622              		.loc 1 351 0 is_stmt 1 discriminator 1
 623 0056 0023     		movs	r3, #0
 624 0058 07E0     		b	.L38
 625              	.LVL59:
 626              	.L53:
 627              		.loc 1 351 0 is_stmt 0
 628 005a 0726     		movs	r6, #7
 629 005c 00E0     		b	.L40
 630              	.L42:
 631 005e 0026     		movs	r6, #0
 632              	.L40:
 633              		.loc 1 351 0 discriminator 32
 634 0060 06FA02F2 		lsl	r2, r6, r2
 635 0064 9142     		cmp	r1, r2
 636 0066 62D0     		beq	.L51
 637              	.LVL60:
 638              	.L39:
 323:Drivers/STM32F4xx_HAL_Driver/Src/stm32f4xx_hal_gpio.c ****   {
 639              		.loc 1 323 0 is_stmt 1 discriminator 2
 640 0068 0133     		adds	r3, r3, #1
 641              	.LVL61:
 642              	.L38:
 323:Drivers/STM32F4xx_HAL_Driver/Src/stm32f4xx_hal_gpio.c ****   {
 643              		.loc 1 323 0 is_stmt 0 discriminator 1
 644 006a 0F2B     		cmp	r3, #15
 645 006c 77D8     		bhi	.L52
 326:Drivers/STM32F4xx_HAL_Driver/Src/stm32f4xx_hal_gpio.c ****     /* Get the current IO position */
 646              		.loc 1 326 0 is_stmt 1
 647 006e 0122     		movs	r2, #1
 648 0070 9A40     		lsls	r2, r2, r3
 649              	.LVL62:
 328:Drivers/STM32F4xx_HAL_Driver/Src/stm32f4xx_hal_gpio.c **** 
 650              		.loc 1 328 0
 651 0072 02EA0500 		and	r0, r2, r5
 652              	.LVL63:
 330:Drivers/STM32F4xx_HAL_Driver/Src/stm32f4xx_hal_gpio.c ****     {
 653              		.loc 1 330 0
 654 0076 8242     		cmp	r2, r0
 655 0078 F6D1     		bne	.L39
 334:Drivers/STM32F4xx_HAL_Driver/Src/stm32f4xx_hal_gpio.c **** 
 656              		.loc 1 334 0
 657 007a 2668     		ldr	r6, [r4]
 658 007c 5F00     		lsls	r7, r3, #1
 659 007e 0321     		movs	r1, #3
 660 0080 B940     		lsls	r1, r1, r7
 661 0082 C943     		mvns	r1, r1
 662 0084 0E40     		ands	r6, r6, r1
 663 0086 2660     		str	r6, [r4]
 337:Drivers/STM32F4xx_HAL_Driver/Src/stm32f4xx_hal_gpio.c **** 
 664              		.loc 1 337 0
 665 0088 4FEAD30E 		lsr	lr, r3, #3
 666 008c 0EF1080E 		add	lr, lr, #8
ARM GAS  /tmp/ccEpSy9e.s 			page 20


 667 0090 54F82EC0 		ldr	ip, [r4, lr, lsl #2]
 668 0094 03F00706 		and	r6, r3, #7
 669 0098 B600     		lsls	r6, r6, #2
 670 009a 0F27     		movs	r7, #15
 671 009c 07FA06F6 		lsl	r6, r7, r6
 672 00a0 2CEA0606 		bic	r6, ip, r6
 673 00a4 44F82E60 		str	r6, [r4, lr, lsl #2]
 340:Drivers/STM32F4xx_HAL_Driver/Src/stm32f4xx_hal_gpio.c **** 
 674              		.loc 1 340 0
 675 00a8 A668     		ldr	r6, [r4, #8]
 676 00aa 0E40     		ands	r6, r6, r1
 677 00ac A660     		str	r6, [r4, #8]
 343:Drivers/STM32F4xx_HAL_Driver/Src/stm32f4xx_hal_gpio.c **** 
 678              		.loc 1 343 0
 679 00ae 6668     		ldr	r6, [r4, #4]
 680 00b0 26EA0202 		bic	r2, r6, r2
 681              	.LVL64:
 682 00b4 6260     		str	r2, [r4, #4]
 346:Drivers/STM32F4xx_HAL_Driver/Src/stm32f4xx_hal_gpio.c **** 
 683              		.loc 1 346 0
 684 00b6 E268     		ldr	r2, [r4, #12]
 685 00b8 1140     		ands	r1, r1, r2
 686 00ba E160     		str	r1, [r4, #12]
 349:Drivers/STM32F4xx_HAL_Driver/Src/stm32f4xx_hal_gpio.c ****       tmp &= (0x0FU << (4U * (position & 0x03U)));
 687              		.loc 1 349 0
 688 00bc 4FEA930E 		lsr	lr, r3, #2
 689 00c0 0EF10201 		add	r1, lr, #2
 690 00c4 284A     		ldr	r2, .L54+8
 691 00c6 52F82110 		ldr	r1, [r2, r1, lsl #2]
 692              	.LVL65:
 350:Drivers/STM32F4xx_HAL_Driver/Src/stm32f4xx_hal_gpio.c ****       if(tmp == ((uint32_t)(GPIO_GET_INDEX(GPIOx)) << (4U * (position & 0x03U))))
 693              		.loc 1 350 0
 694 00ca 03F00302 		and	r2, r3, #3
 695 00ce 9200     		lsls	r2, r2, #2
 696 00d0 9740     		lsls	r7, r7, r2
 697 00d2 3940     		ands	r1, r1, r7
 698              	.LVL66:
 699              		.loc 1 351 0
 700 00d4 224E     		ldr	r6, .L54
 701 00d6 B442     		cmp	r4, r6
 702 00d8 C1D0     		beq	.L42
 703              		.loc 1 351 0 is_stmt 0 discriminator 1
 704 00da 06F58066 		add	r6, r6, #1024
 705 00de B442     		cmp	r4, r6
 706 00e0 19D0     		beq	.L43
 707              		.loc 1 351 0 discriminator 3
 708 00e2 06F58066 		add	r6, r6, #1024
 709 00e6 B442     		cmp	r4, r6
 710 00e8 17D0     		beq	.L44
 711              		.loc 1 351 0 discriminator 5
 712 00ea 06F58066 		add	r6, r6, #1024
 713 00ee B442     		cmp	r4, r6
 714 00f0 15D0     		beq	.L45
 715              		.loc 1 351 0 discriminator 7
 716 00f2 06F58066 		add	r6, r6, #1024
 717 00f6 B442     		cmp	r4, r6
 718 00f8 13D0     		beq	.L46
ARM GAS  /tmp/ccEpSy9e.s 			page 21


 719              		.loc 1 351 0 discriminator 9
 720 00fa 06F58066 		add	r6, r6, #1024
 721 00fe B442     		cmp	r4, r6
 722 0100 11D0     		beq	.L47
 723              		.loc 1 351 0 discriminator 11
 724 0102 06F58066 		add	r6, r6, #1024
 725 0106 B442     		cmp	r4, r6
 726 0108 0FD0     		beq	.L48
 727              		.loc 1 351 0 discriminator 13
 728 010a 06F58066 		add	r6, r6, #1024
 729 010e B442     		cmp	r4, r6
 730 0110 A3D0     		beq	.L53
 731              		.loc 1 351 0
 732 0112 0826     		movs	r6, #8
 733 0114 A4E7     		b	.L40
 734              	.L43:
 735 0116 0126     		movs	r6, #1
 736              	.LVL67:
 737 0118 A2E7     		b	.L40
 738              	.LVL68:
 739              	.L44:
 740 011a 0226     		movs	r6, #2
 741 011c A0E7     		b	.L40
 742              	.L45:
 743 011e 0326     		movs	r6, #3
 744 0120 9EE7     		b	.L40
 745              	.L46:
 746 0122 0426     		movs	r6, #4
 747 0124 9CE7     		b	.L40
 748              	.L47:
 749 0126 0526     		movs	r6, #5
 750 0128 9AE7     		b	.L40
 751              	.L48:
 752 012a 0626     		movs	r6, #6
 753 012c 98E7     		b	.L40
 754              	.L51:
 755              	.LVL69:
 352:Drivers/STM32F4xx_HAL_Driver/Src/stm32f4xx_hal_gpio.c ****       {
 353:Drivers/STM32F4xx_HAL_Driver/Src/stm32f4xx_hal_gpio.c ****         /* Configure the External Interrupt or event for the current IO */
 354:Drivers/STM32F4xx_HAL_Driver/Src/stm32f4xx_hal_gpio.c ****         tmp = 0x0FU << (4U * (position & 0x03U));
 355:Drivers/STM32F4xx_HAL_Driver/Src/stm32f4xx_hal_gpio.c ****         SYSCFG->EXTICR[position >> 2U] &= ~tmp;
 756              		.loc 1 355 0 is_stmt 1
 757 012e 0E4E     		ldr	r6, .L54+8
 758 0130 0EF10202 		add	r2, lr, #2
 759 0134 56F82210 		ldr	r1, [r6, r2, lsl #2]
 760 0138 21EA0707 		bic	r7, r1, r7
 761              	.LVL70:
 762 013c 46F82270 		str	r7, [r6, r2, lsl #2]
 356:Drivers/STM32F4xx_HAL_Driver/Src/stm32f4xx_hal_gpio.c **** 
 357:Drivers/STM32F4xx_HAL_Driver/Src/stm32f4xx_hal_gpio.c ****         /* Clear EXTI line configuration */
 358:Drivers/STM32F4xx_HAL_Driver/Src/stm32f4xx_hal_gpio.c ****         EXTI->IMR &= ~((uint32_t)iocurrent);
 763              		.loc 1 358 0
 764 0140 0A49     		ldr	r1, .L54+12
 765 0142 0E68     		ldr	r6, [r1]
 766 0144 C243     		mvns	r2, r0
 767 0146 1640     		ands	r6, r6, r2
 768 0148 0E60     		str	r6, [r1]
ARM GAS  /tmp/ccEpSy9e.s 			page 22


 359:Drivers/STM32F4xx_HAL_Driver/Src/stm32f4xx_hal_gpio.c ****         EXTI->EMR &= ~((uint32_t)iocurrent);
 769              		.loc 1 359 0
 770 014a 4868     		ldr	r0, [r1, #4]
 771              	.LVL71:
 772 014c 1040     		ands	r0, r0, r2
 773 014e 4860     		str	r0, [r1, #4]
 360:Drivers/STM32F4xx_HAL_Driver/Src/stm32f4xx_hal_gpio.c ****         
 361:Drivers/STM32F4xx_HAL_Driver/Src/stm32f4xx_hal_gpio.c ****         /* Clear Rising Falling edge configuration */
 362:Drivers/STM32F4xx_HAL_Driver/Src/stm32f4xx_hal_gpio.c ****         EXTI->RTSR &= ~((uint32_t)iocurrent);
 774              		.loc 1 362 0
 775 0150 8868     		ldr	r0, [r1, #8]
 776 0152 1040     		ands	r0, r0, r2
 777 0154 8860     		str	r0, [r1, #8]
 363:Drivers/STM32F4xx_HAL_Driver/Src/stm32f4xx_hal_gpio.c ****         EXTI->FTSR &= ~((uint32_t)iocurrent);
 778              		.loc 1 363 0
 779 0156 C868     		ldr	r0, [r1, #12]
 780 0158 0240     		ands	r2, r2, r0
 781              	.LVL72:
 782 015a CA60     		str	r2, [r1, #12]
 783 015c 84E7     		b	.L39
 784              	.LVL73:
 785              	.L52:
 364:Drivers/STM32F4xx_HAL_Driver/Src/stm32f4xx_hal_gpio.c ****       }
 365:Drivers/STM32F4xx_HAL_Driver/Src/stm32f4xx_hal_gpio.c ****     }
 366:Drivers/STM32F4xx_HAL_Driver/Src/stm32f4xx_hal_gpio.c ****   }
 367:Drivers/STM32F4xx_HAL_Driver/Src/stm32f4xx_hal_gpio.c **** }
 786              		.loc 1 367 0
 787 015e F8BD     		pop	{r3, r4, r5, r6, r7, pc}
 788              	.LVL74:
 789              	.L55:
 790              		.align	2
 791              	.L54:
 792 0160 00000240 		.word	1073872896
 793 0164 00000000 		.word	.LC0
 794 0168 00380140 		.word	1073821696
 795 016c 003C0140 		.word	1073822720
 796              		.cfi_endproc
 797              	.LFE124:
 799              		.section	.text.HAL_GPIO_ReadPin,"ax",%progbits
 800              		.align	1
 801              		.global	HAL_GPIO_ReadPin
 802              		.syntax unified
 803              		.thumb
 804              		.thumb_func
 805              		.fpu fpv4-sp-d16
 807              	HAL_GPIO_ReadPin:
 808              	.LFB125:
 368:Drivers/STM32F4xx_HAL_Driver/Src/stm32f4xx_hal_gpio.c **** 
 369:Drivers/STM32F4xx_HAL_Driver/Src/stm32f4xx_hal_gpio.c **** /**
 370:Drivers/STM32F4xx_HAL_Driver/Src/stm32f4xx_hal_gpio.c ****   * @}
 371:Drivers/STM32F4xx_HAL_Driver/Src/stm32f4xx_hal_gpio.c ****   */
 372:Drivers/STM32F4xx_HAL_Driver/Src/stm32f4xx_hal_gpio.c **** 
 373:Drivers/STM32F4xx_HAL_Driver/Src/stm32f4xx_hal_gpio.c **** /** @defgroup GPIO_Exported_Functions_Group2 IO operation functions 
 374:Drivers/STM32F4xx_HAL_Driver/Src/stm32f4xx_hal_gpio.c ****   *  @brief   GPIO Read and Write
 375:Drivers/STM32F4xx_HAL_Driver/Src/stm32f4xx_hal_gpio.c ****   *
 376:Drivers/STM32F4xx_HAL_Driver/Src/stm32f4xx_hal_gpio.c **** @verbatim
 377:Drivers/STM32F4xx_HAL_Driver/Src/stm32f4xx_hal_gpio.c ****  ===============================================================================
ARM GAS  /tmp/ccEpSy9e.s 			page 23


 378:Drivers/STM32F4xx_HAL_Driver/Src/stm32f4xx_hal_gpio.c ****                        ##### IO operation functions #####
 379:Drivers/STM32F4xx_HAL_Driver/Src/stm32f4xx_hal_gpio.c ****  ===============================================================================
 380:Drivers/STM32F4xx_HAL_Driver/Src/stm32f4xx_hal_gpio.c **** 
 381:Drivers/STM32F4xx_HAL_Driver/Src/stm32f4xx_hal_gpio.c **** @endverbatim
 382:Drivers/STM32F4xx_HAL_Driver/Src/stm32f4xx_hal_gpio.c ****   * @{
 383:Drivers/STM32F4xx_HAL_Driver/Src/stm32f4xx_hal_gpio.c ****   */
 384:Drivers/STM32F4xx_HAL_Driver/Src/stm32f4xx_hal_gpio.c **** 
 385:Drivers/STM32F4xx_HAL_Driver/Src/stm32f4xx_hal_gpio.c **** /**
 386:Drivers/STM32F4xx_HAL_Driver/Src/stm32f4xx_hal_gpio.c ****   * @brief  Reads the specified input port pin.
 387:Drivers/STM32F4xx_HAL_Driver/Src/stm32f4xx_hal_gpio.c ****   * @param  GPIOx where x can be (A..K) to select the GPIO peripheral for STM32F429X device or
 388:Drivers/STM32F4xx_HAL_Driver/Src/stm32f4xx_hal_gpio.c ****   *                      x can be (A..I) to select the GPIO peripheral for STM32F40XX and STM32F427
 389:Drivers/STM32F4xx_HAL_Driver/Src/stm32f4xx_hal_gpio.c ****   * @param  GPIO_Pin specifies the port bit to read.
 390:Drivers/STM32F4xx_HAL_Driver/Src/stm32f4xx_hal_gpio.c ****   *         This parameter can be GPIO_PIN_x where x can be (0..15).
 391:Drivers/STM32F4xx_HAL_Driver/Src/stm32f4xx_hal_gpio.c ****   * @retval The input port pin value.
 392:Drivers/STM32F4xx_HAL_Driver/Src/stm32f4xx_hal_gpio.c ****   */
 393:Drivers/STM32F4xx_HAL_Driver/Src/stm32f4xx_hal_gpio.c **** GPIO_PinState HAL_GPIO_ReadPin(GPIO_TypeDef* GPIOx, uint16_t GPIO_Pin)
 394:Drivers/STM32F4xx_HAL_Driver/Src/stm32f4xx_hal_gpio.c **** {
 809              		.loc 1 394 0
 810              		.cfi_startproc
 811              		@ args = 0, pretend = 0, frame = 0
 812              		@ frame_needed = 0, uses_anonymous_args = 0
 813              	.LVL75:
 814 0000 38B5     		push	{r3, r4, r5, lr}
 815              	.LCFI4:
 816              		.cfi_def_cfa_offset 16
 817              		.cfi_offset 3, -16
 818              		.cfi_offset 4, -12
 819              		.cfi_offset 5, -8
 820              		.cfi_offset 14, -4
 821 0002 0546     		mov	r5, r0
 395:Drivers/STM32F4xx_HAL_Driver/Src/stm32f4xx_hal_gpio.c ****   GPIO_PinState bitstatus;
 396:Drivers/STM32F4xx_HAL_Driver/Src/stm32f4xx_hal_gpio.c **** 
 397:Drivers/STM32F4xx_HAL_Driver/Src/stm32f4xx_hal_gpio.c ****   /* Check the parameters */
 398:Drivers/STM32F4xx_HAL_Driver/Src/stm32f4xx_hal_gpio.c ****   assert_param(IS_GPIO_PIN(GPIO_Pin));
 822              		.loc 1 398 0
 823 0004 0C46     		mov	r4, r1
 824 0006 21B1     		cbz	r1, .L62
 825              	.LVL76:
 826              	.L58:
 399:Drivers/STM32F4xx_HAL_Driver/Src/stm32f4xx_hal_gpio.c **** 
 400:Drivers/STM32F4xx_HAL_Driver/Src/stm32f4xx_hal_gpio.c ****   if((GPIOx->IDR & GPIO_Pin) != (uint32_t)GPIO_PIN_RESET)
 827              		.loc 1 400 0
 828 0008 2B69     		ldr	r3, [r5, #16]
 829 000a 1C42     		tst	r4, r3
 830 000c 07D1     		bne	.L63
 401:Drivers/STM32F4xx_HAL_Driver/Src/stm32f4xx_hal_gpio.c ****   {
 402:Drivers/STM32F4xx_HAL_Driver/Src/stm32f4xx_hal_gpio.c ****     bitstatus = GPIO_PIN_SET;
 403:Drivers/STM32F4xx_HAL_Driver/Src/stm32f4xx_hal_gpio.c ****   }
 404:Drivers/STM32F4xx_HAL_Driver/Src/stm32f4xx_hal_gpio.c ****   else
 405:Drivers/STM32F4xx_HAL_Driver/Src/stm32f4xx_hal_gpio.c ****   {
 406:Drivers/STM32F4xx_HAL_Driver/Src/stm32f4xx_hal_gpio.c ****     bitstatus = GPIO_PIN_RESET;
 831              		.loc 1 406 0
 832 000e 0020     		movs	r0, #0
 833              	.LVL77:
 407:Drivers/STM32F4xx_HAL_Driver/Src/stm32f4xx_hal_gpio.c ****   }
 408:Drivers/STM32F4xx_HAL_Driver/Src/stm32f4xx_hal_gpio.c ****   return bitstatus;
 409:Drivers/STM32F4xx_HAL_Driver/Src/stm32f4xx_hal_gpio.c **** }
ARM GAS  /tmp/ccEpSy9e.s 			page 24


 834              		.loc 1 409 0
 835 0010 38BD     		pop	{r3, r4, r5, pc}
 836              	.LVL78:
 837              	.L62:
 398:Drivers/STM32F4xx_HAL_Driver/Src/stm32f4xx_hal_gpio.c **** 
 838              		.loc 1 398 0 discriminator 3
 839 0012 4FF4C771 		mov	r1, #398
 840              	.LVL79:
 841 0016 0348     		ldr	r0, .L64
 842              	.LVL80:
 843 0018 FFF7FEFF 		bl	assert_failed
 844              	.LVL81:
 845 001c F4E7     		b	.L58
 846              	.L63:
 402:Drivers/STM32F4xx_HAL_Driver/Src/stm32f4xx_hal_gpio.c ****   }
 847              		.loc 1 402 0
 848 001e 0120     		movs	r0, #1
 849 0020 38BD     		pop	{r3, r4, r5, pc}
 850              	.LVL82:
 851              	.L65:
 852 0022 00BF     		.align	2
 853              	.L64:
 854 0024 00000000 		.word	.LC0
 855              		.cfi_endproc
 856              	.LFE125:
 858              		.section	.text.HAL_GPIO_WritePin,"ax",%progbits
 859              		.align	1
 860              		.global	HAL_GPIO_WritePin
 861              		.syntax unified
 862              		.thumb
 863              		.thumb_func
 864              		.fpu fpv4-sp-d16
 866              	HAL_GPIO_WritePin:
 867              	.LFB126:
 410:Drivers/STM32F4xx_HAL_Driver/Src/stm32f4xx_hal_gpio.c **** 
 411:Drivers/STM32F4xx_HAL_Driver/Src/stm32f4xx_hal_gpio.c **** /**
 412:Drivers/STM32F4xx_HAL_Driver/Src/stm32f4xx_hal_gpio.c ****   * @brief  Sets or clears the selected data port bit.
 413:Drivers/STM32F4xx_HAL_Driver/Src/stm32f4xx_hal_gpio.c ****   *
 414:Drivers/STM32F4xx_HAL_Driver/Src/stm32f4xx_hal_gpio.c ****   * @note   This function uses GPIOx_BSRR register to allow atomic read/modify
 415:Drivers/STM32F4xx_HAL_Driver/Src/stm32f4xx_hal_gpio.c ****   *         accesses. In this way, there is no risk of an IRQ occurring between
 416:Drivers/STM32F4xx_HAL_Driver/Src/stm32f4xx_hal_gpio.c ****   *         the read and the modify access.
 417:Drivers/STM32F4xx_HAL_Driver/Src/stm32f4xx_hal_gpio.c ****   *
 418:Drivers/STM32F4xx_HAL_Driver/Src/stm32f4xx_hal_gpio.c ****   * @param  GPIOx where x can be (A..K) to select the GPIO peripheral for STM32F429X device or
 419:Drivers/STM32F4xx_HAL_Driver/Src/stm32f4xx_hal_gpio.c ****   *                      x can be (A..I) to select the GPIO peripheral for STM32F40XX and STM32F427
 420:Drivers/STM32F4xx_HAL_Driver/Src/stm32f4xx_hal_gpio.c ****   * @param  GPIO_Pin specifies the port bit to be written.
 421:Drivers/STM32F4xx_HAL_Driver/Src/stm32f4xx_hal_gpio.c ****   *          This parameter can be one of GPIO_PIN_x where x can be (0..15).
 422:Drivers/STM32F4xx_HAL_Driver/Src/stm32f4xx_hal_gpio.c ****   * @param  PinState specifies the value to be written to the selected bit.
 423:Drivers/STM32F4xx_HAL_Driver/Src/stm32f4xx_hal_gpio.c ****   *          This parameter can be one of the GPIO_PinState enum values:
 424:Drivers/STM32F4xx_HAL_Driver/Src/stm32f4xx_hal_gpio.c ****   *            @arg GPIO_PIN_RESET: to clear the port pin
 425:Drivers/STM32F4xx_HAL_Driver/Src/stm32f4xx_hal_gpio.c ****   *            @arg GPIO_PIN_SET: to set the port pin
 426:Drivers/STM32F4xx_HAL_Driver/Src/stm32f4xx_hal_gpio.c ****   * @retval None
 427:Drivers/STM32F4xx_HAL_Driver/Src/stm32f4xx_hal_gpio.c ****   */
 428:Drivers/STM32F4xx_HAL_Driver/Src/stm32f4xx_hal_gpio.c **** void HAL_GPIO_WritePin(GPIO_TypeDef* GPIOx, uint16_t GPIO_Pin, GPIO_PinState PinState)
 429:Drivers/STM32F4xx_HAL_Driver/Src/stm32f4xx_hal_gpio.c **** {
 868              		.loc 1 429 0
 869              		.cfi_startproc
 870              		@ args = 0, pretend = 0, frame = 0
ARM GAS  /tmp/ccEpSy9e.s 			page 25


 871              		@ frame_needed = 0, uses_anonymous_args = 0
 872              	.LVL83:
 873 0000 70B5     		push	{r4, r5, r6, lr}
 874              	.LCFI5:
 875              		.cfi_def_cfa_offset 16
 876              		.cfi_offset 4, -16
 877              		.cfi_offset 5, -12
 878              		.cfi_offset 6, -8
 879              		.cfi_offset 14, -4
 880 0002 0646     		mov	r6, r0
 881 0004 1546     		mov	r5, r2
 430:Drivers/STM32F4xx_HAL_Driver/Src/stm32f4xx_hal_gpio.c ****   /* Check the parameters */
 431:Drivers/STM32F4xx_HAL_Driver/Src/stm32f4xx_hal_gpio.c ****   assert_param(IS_GPIO_PIN(GPIO_Pin));
 882              		.loc 1 431 0
 883 0006 0C46     		mov	r4, r1
 884 0008 51B1     		cbz	r1, .L73
 885              	.LVL84:
 886              	.L68:
 432:Drivers/STM32F4xx_HAL_Driver/Src/stm32f4xx_hal_gpio.c ****   assert_param(IS_GPIO_PIN_ACTION(PinState));
 887              		.loc 1 432 0
 888 000a 012D     		cmp	r5, #1
 889 000c 04D9     		bls	.L69
 890              		.loc 1 432 0 is_stmt 0 discriminator 1
 891 000e 4FF4D871 		mov	r1, #432
 892 0012 0748     		ldr	r0, .L75
 893 0014 FFF7FEFF 		bl	assert_failed
 894              	.LVL85:
 895              	.L69:
 433:Drivers/STM32F4xx_HAL_Driver/Src/stm32f4xx_hal_gpio.c **** 
 434:Drivers/STM32F4xx_HAL_Driver/Src/stm32f4xx_hal_gpio.c ****   if(PinState != GPIO_PIN_RESET)
 896              		.loc 1 434 0 is_stmt 1
 897 0018 45B9     		cbnz	r5, .L74
 435:Drivers/STM32F4xx_HAL_Driver/Src/stm32f4xx_hal_gpio.c ****   {
 436:Drivers/STM32F4xx_HAL_Driver/Src/stm32f4xx_hal_gpio.c ****     GPIOx->BSRR = GPIO_Pin;
 437:Drivers/STM32F4xx_HAL_Driver/Src/stm32f4xx_hal_gpio.c ****   }
 438:Drivers/STM32F4xx_HAL_Driver/Src/stm32f4xx_hal_gpio.c ****   else
 439:Drivers/STM32F4xx_HAL_Driver/Src/stm32f4xx_hal_gpio.c ****   {
 440:Drivers/STM32F4xx_HAL_Driver/Src/stm32f4xx_hal_gpio.c ****     GPIOx->BSRR = (uint32_t)GPIO_Pin << 16U;
 898              		.loc 1 440 0
 899 001a 2404     		lsls	r4, r4, #16
 900 001c B461     		str	r4, [r6, #24]
 901 001e 70BD     		pop	{r4, r5, r6, pc}
 902              	.LVL86:
 903              	.L73:
 431:Drivers/STM32F4xx_HAL_Driver/Src/stm32f4xx_hal_gpio.c ****   assert_param(IS_GPIO_PIN_ACTION(PinState));
 904              		.loc 1 431 0 discriminator 3
 905 0020 40F2AF11 		movw	r1, #431
 906              	.LVL87:
 907 0024 0248     		ldr	r0, .L75
 908              	.LVL88:
 909 0026 FFF7FEFF 		bl	assert_failed
 910              	.LVL89:
 911 002a EEE7     		b	.L68
 912              	.L74:
 436:Drivers/STM32F4xx_HAL_Driver/Src/stm32f4xx_hal_gpio.c ****   }
 913              		.loc 1 436 0
 914 002c B461     		str	r4, [r6, #24]
ARM GAS  /tmp/ccEpSy9e.s 			page 26


 915 002e 70BD     		pop	{r4, r5, r6, pc}
 916              	.LVL90:
 917              	.L76:
 918              		.align	2
 919              	.L75:
 920 0030 00000000 		.word	.LC0
 921              		.cfi_endproc
 922              	.LFE126:
 924              		.section	.text.HAL_GPIO_TogglePin,"ax",%progbits
 925              		.align	1
 926              		.global	HAL_GPIO_TogglePin
 927              		.syntax unified
 928              		.thumb
 929              		.thumb_func
 930              		.fpu fpv4-sp-d16
 932              	HAL_GPIO_TogglePin:
 933              	.LFB127:
 441:Drivers/STM32F4xx_HAL_Driver/Src/stm32f4xx_hal_gpio.c ****   }
 442:Drivers/STM32F4xx_HAL_Driver/Src/stm32f4xx_hal_gpio.c **** }
 443:Drivers/STM32F4xx_HAL_Driver/Src/stm32f4xx_hal_gpio.c **** 
 444:Drivers/STM32F4xx_HAL_Driver/Src/stm32f4xx_hal_gpio.c **** /**
 445:Drivers/STM32F4xx_HAL_Driver/Src/stm32f4xx_hal_gpio.c ****   * @brief  Toggles the specified GPIO pins.
 446:Drivers/STM32F4xx_HAL_Driver/Src/stm32f4xx_hal_gpio.c ****   * @param  GPIOx Where x can be (A..K) to select the GPIO peripheral for STM32F429X device or
 447:Drivers/STM32F4xx_HAL_Driver/Src/stm32f4xx_hal_gpio.c ****   *                      x can be (A..I) to select the GPIO peripheral for STM32F40XX and STM32F427
 448:Drivers/STM32F4xx_HAL_Driver/Src/stm32f4xx_hal_gpio.c ****   * @param  GPIO_Pin Specifies the pins to be toggled.
 449:Drivers/STM32F4xx_HAL_Driver/Src/stm32f4xx_hal_gpio.c ****   * @retval None
 450:Drivers/STM32F4xx_HAL_Driver/Src/stm32f4xx_hal_gpio.c ****   */
 451:Drivers/STM32F4xx_HAL_Driver/Src/stm32f4xx_hal_gpio.c **** void HAL_GPIO_TogglePin(GPIO_TypeDef* GPIOx, uint16_t GPIO_Pin)
 452:Drivers/STM32F4xx_HAL_Driver/Src/stm32f4xx_hal_gpio.c **** {
 934              		.loc 1 452 0
 935              		.cfi_startproc
 936              		@ args = 0, pretend = 0, frame = 0
 937              		@ frame_needed = 0, uses_anonymous_args = 0
 938              	.LVL91:
 939 0000 38B5     		push	{r3, r4, r5, lr}
 940              	.LCFI6:
 941              		.cfi_def_cfa_offset 16
 942              		.cfi_offset 3, -16
 943              		.cfi_offset 4, -12
 944              		.cfi_offset 5, -8
 945              		.cfi_offset 14, -4
 946 0002 0546     		mov	r5, r0
 453:Drivers/STM32F4xx_HAL_Driver/Src/stm32f4xx_hal_gpio.c ****   /* Check the parameters */
 454:Drivers/STM32F4xx_HAL_Driver/Src/stm32f4xx_hal_gpio.c ****   assert_param(IS_GPIO_PIN(GPIO_Pin));
 947              		.loc 1 454 0
 948 0004 0C46     		mov	r4, r1
 949 0006 21B9     		cbnz	r1, .L79
 950              		.loc 1 454 0 is_stmt 0 discriminator 3
 951 0008 4FF4E371 		mov	r1, #454
 952              	.LVL92:
 953 000c 0348     		ldr	r0, .L81
 954              	.LVL93:
 955 000e FFF7FEFF 		bl	assert_failed
 956              	.LVL94:
 957              	.L79:
 455:Drivers/STM32F4xx_HAL_Driver/Src/stm32f4xx_hal_gpio.c **** 
 456:Drivers/STM32F4xx_HAL_Driver/Src/stm32f4xx_hal_gpio.c ****   GPIOx->ODR ^= GPIO_Pin;
ARM GAS  /tmp/ccEpSy9e.s 			page 27


 958              		.loc 1 456 0 is_stmt 1
 959 0012 6B69     		ldr	r3, [r5, #20]
 960 0014 5C40     		eors	r4, r4, r3
 961 0016 6C61     		str	r4, [r5, #20]
 962 0018 38BD     		pop	{r3, r4, r5, pc}
 963              	.LVL95:
 964              	.L82:
 965 001a 00BF     		.align	2
 966              	.L81:
 967 001c 00000000 		.word	.LC0
 968              		.cfi_endproc
 969              	.LFE127:
 971              		.section	.text.HAL_GPIO_LockPin,"ax",%progbits
 972              		.align	1
 973              		.global	HAL_GPIO_LockPin
 974              		.syntax unified
 975              		.thumb
 976              		.thumb_func
 977              		.fpu fpv4-sp-d16
 979              	HAL_GPIO_LockPin:
 980              	.LFB128:
 457:Drivers/STM32F4xx_HAL_Driver/Src/stm32f4xx_hal_gpio.c **** }
 458:Drivers/STM32F4xx_HAL_Driver/Src/stm32f4xx_hal_gpio.c **** 
 459:Drivers/STM32F4xx_HAL_Driver/Src/stm32f4xx_hal_gpio.c **** /**
 460:Drivers/STM32F4xx_HAL_Driver/Src/stm32f4xx_hal_gpio.c ****   * @brief  Locks GPIO Pins configuration registers.
 461:Drivers/STM32F4xx_HAL_Driver/Src/stm32f4xx_hal_gpio.c ****   * @note   The locked registers are GPIOx_MODER, GPIOx_OTYPER, GPIOx_OSPEEDR,
 462:Drivers/STM32F4xx_HAL_Driver/Src/stm32f4xx_hal_gpio.c ****   *         GPIOx_PUPDR, GPIOx_AFRL and GPIOx_AFRH.
 463:Drivers/STM32F4xx_HAL_Driver/Src/stm32f4xx_hal_gpio.c ****   * @note   The configuration of the locked GPIO pins can no longer be modified
 464:Drivers/STM32F4xx_HAL_Driver/Src/stm32f4xx_hal_gpio.c ****   *         until the next reset.
 465:Drivers/STM32F4xx_HAL_Driver/Src/stm32f4xx_hal_gpio.c ****   * @param  GPIOx where x can be (A..F) to select the GPIO peripheral for STM32F4 family
 466:Drivers/STM32F4xx_HAL_Driver/Src/stm32f4xx_hal_gpio.c ****   * @param  GPIO_Pin specifies the port bit to be locked.
 467:Drivers/STM32F4xx_HAL_Driver/Src/stm32f4xx_hal_gpio.c ****   *         This parameter can be any combination of GPIO_PIN_x where x can be (0..15).
 468:Drivers/STM32F4xx_HAL_Driver/Src/stm32f4xx_hal_gpio.c ****   * @retval None
 469:Drivers/STM32F4xx_HAL_Driver/Src/stm32f4xx_hal_gpio.c ****   */
 470:Drivers/STM32F4xx_HAL_Driver/Src/stm32f4xx_hal_gpio.c **** HAL_StatusTypeDef HAL_GPIO_LockPin(GPIO_TypeDef* GPIOx, uint16_t GPIO_Pin)
 471:Drivers/STM32F4xx_HAL_Driver/Src/stm32f4xx_hal_gpio.c **** {
 981              		.loc 1 471 0
 982              		.cfi_startproc
 983              		@ args = 0, pretend = 0, frame = 8
 984              		@ frame_needed = 0, uses_anonymous_args = 0
 985              	.LVL96:
 986 0000 30B5     		push	{r4, r5, lr}
 987              	.LCFI7:
 988              		.cfi_def_cfa_offset 12
 989              		.cfi_offset 4, -12
 990              		.cfi_offset 5, -8
 991              		.cfi_offset 14, -4
 992 0002 83B0     		sub	sp, sp, #12
 993              	.LCFI8:
 994              		.cfi_def_cfa_offset 24
 995 0004 0446     		mov	r4, r0
 472:Drivers/STM32F4xx_HAL_Driver/Src/stm32f4xx_hal_gpio.c ****   __IO uint32_t tmp = GPIO_LCKR_LCKK;
 996              		.loc 1 472 0
 997 0006 4FF48033 		mov	r3, #65536
 998 000a 0193     		str	r3, [sp, #4]
 473:Drivers/STM32F4xx_HAL_Driver/Src/stm32f4xx_hal_gpio.c **** 
 474:Drivers/STM32F4xx_HAL_Driver/Src/stm32f4xx_hal_gpio.c ****   /* Check the parameters */
ARM GAS  /tmp/ccEpSy9e.s 			page 28


 475:Drivers/STM32F4xx_HAL_Driver/Src/stm32f4xx_hal_gpio.c ****   assert_param(IS_GPIO_PIN(GPIO_Pin));
 999              		.loc 1 475 0
 1000 000c 0D46     		mov	r5, r1
 1001 000e 81B1     		cbz	r1, .L89
 1002              	.LVL97:
 1003              	.L85:
 476:Drivers/STM32F4xx_HAL_Driver/Src/stm32f4xx_hal_gpio.c **** 
 477:Drivers/STM32F4xx_HAL_Driver/Src/stm32f4xx_hal_gpio.c ****   /* Apply lock key write sequence */
 478:Drivers/STM32F4xx_HAL_Driver/Src/stm32f4xx_hal_gpio.c ****   tmp |= GPIO_Pin;
 1004              		.loc 1 478 0
 1005 0010 019B     		ldr	r3, [sp, #4]
 1006 0012 2B43     		orrs	r3, r3, r5
 1007 0014 0193     		str	r3, [sp, #4]
 479:Drivers/STM32F4xx_HAL_Driver/Src/stm32f4xx_hal_gpio.c ****   /* Set LCKx bit(s): LCKK='1' + LCK[15-0] */
 480:Drivers/STM32F4xx_HAL_Driver/Src/stm32f4xx_hal_gpio.c ****   GPIOx->LCKR = tmp;
 1008              		.loc 1 480 0
 1009 0016 019B     		ldr	r3, [sp, #4]
 1010 0018 E361     		str	r3, [r4, #28]
 481:Drivers/STM32F4xx_HAL_Driver/Src/stm32f4xx_hal_gpio.c ****   /* Reset LCKx bit(s): LCKK='0' + LCK[15-0] */
 482:Drivers/STM32F4xx_HAL_Driver/Src/stm32f4xx_hal_gpio.c ****   GPIOx->LCKR = GPIO_Pin;
 1011              		.loc 1 482 0
 1012 001a E561     		str	r5, [r4, #28]
 483:Drivers/STM32F4xx_HAL_Driver/Src/stm32f4xx_hal_gpio.c ****   /* Set LCKx bit(s): LCKK='1' + LCK[15-0] */
 484:Drivers/STM32F4xx_HAL_Driver/Src/stm32f4xx_hal_gpio.c ****   GPIOx->LCKR = tmp;
 1013              		.loc 1 484 0
 1014 001c 019B     		ldr	r3, [sp, #4]
 1015 001e E361     		str	r3, [r4, #28]
 485:Drivers/STM32F4xx_HAL_Driver/Src/stm32f4xx_hal_gpio.c ****   /* Read LCKK bit*/
 486:Drivers/STM32F4xx_HAL_Driver/Src/stm32f4xx_hal_gpio.c ****   tmp = GPIOx->LCKR;
 1016              		.loc 1 486 0
 1017 0020 E369     		ldr	r3, [r4, #28]
 1018 0022 0193     		str	r3, [sp, #4]
 487:Drivers/STM32F4xx_HAL_Driver/Src/stm32f4xx_hal_gpio.c **** 
 488:Drivers/STM32F4xx_HAL_Driver/Src/stm32f4xx_hal_gpio.c ****  if((GPIOx->LCKR & GPIO_LCKR_LCKK) != RESET)
 1019              		.loc 1 488 0
 1020 0024 E369     		ldr	r3, [r4, #28]
 1021 0026 13F4803F 		tst	r3, #65536
 1022 002a 08D1     		bne	.L90
 489:Drivers/STM32F4xx_HAL_Driver/Src/stm32f4xx_hal_gpio.c ****   {
 490:Drivers/STM32F4xx_HAL_Driver/Src/stm32f4xx_hal_gpio.c ****     return HAL_OK;
 491:Drivers/STM32F4xx_HAL_Driver/Src/stm32f4xx_hal_gpio.c ****   }
 492:Drivers/STM32F4xx_HAL_Driver/Src/stm32f4xx_hal_gpio.c ****   else
 493:Drivers/STM32F4xx_HAL_Driver/Src/stm32f4xx_hal_gpio.c ****   {
 494:Drivers/STM32F4xx_HAL_Driver/Src/stm32f4xx_hal_gpio.c ****     return HAL_ERROR;
 1023              		.loc 1 494 0
 1024 002c 0120     		movs	r0, #1
 1025              	.L86:
 495:Drivers/STM32F4xx_HAL_Driver/Src/stm32f4xx_hal_gpio.c ****   }
 496:Drivers/STM32F4xx_HAL_Driver/Src/stm32f4xx_hal_gpio.c **** }
 1026              		.loc 1 496 0
 1027 002e 03B0     		add	sp, sp, #12
 1028              	.LCFI9:
 1029              		.cfi_remember_state
 1030              		.cfi_def_cfa_offset 12
 1031              		@ sp needed
 1032 0030 30BD     		pop	{r4, r5, pc}
 1033              	.LVL98:
ARM GAS  /tmp/ccEpSy9e.s 			page 29


 1034              	.L89:
 1035              	.LCFI10:
 1036              		.cfi_restore_state
 475:Drivers/STM32F4xx_HAL_Driver/Src/stm32f4xx_hal_gpio.c **** 
 1037              		.loc 1 475 0 discriminator 3
 1038 0032 40F2DB11 		movw	r1, #475
 1039              	.LVL99:
 1040 0036 0348     		ldr	r0, .L91
 1041              	.LVL100:
 1042 0038 FFF7FEFF 		bl	assert_failed
 1043              	.LVL101:
 1044 003c E8E7     		b	.L85
 1045              	.L90:
 490:Drivers/STM32F4xx_HAL_Driver/Src/stm32f4xx_hal_gpio.c ****   }
 1046              		.loc 1 490 0
 1047 003e 0020     		movs	r0, #0
 1048 0040 F5E7     		b	.L86
 1049              	.L92:
 1050 0042 00BF     		.align	2
 1051              	.L91:
 1052 0044 00000000 		.word	.LC0
 1053              		.cfi_endproc
 1054              	.LFE128:
 1056              		.section	.text.HAL_GPIO_EXTI_Callback,"ax",%progbits
 1057              		.align	1
 1058              		.weak	HAL_GPIO_EXTI_Callback
 1059              		.syntax unified
 1060              		.thumb
 1061              		.thumb_func
 1062              		.fpu fpv4-sp-d16
 1064              	HAL_GPIO_EXTI_Callback:
 1065              	.LFB130:
 497:Drivers/STM32F4xx_HAL_Driver/Src/stm32f4xx_hal_gpio.c **** 
 498:Drivers/STM32F4xx_HAL_Driver/Src/stm32f4xx_hal_gpio.c **** /**
 499:Drivers/STM32F4xx_HAL_Driver/Src/stm32f4xx_hal_gpio.c ****   * @brief  This function handles EXTI interrupt request.
 500:Drivers/STM32F4xx_HAL_Driver/Src/stm32f4xx_hal_gpio.c ****   * @param  GPIO_Pin Specifies the pins connected EXTI line
 501:Drivers/STM32F4xx_HAL_Driver/Src/stm32f4xx_hal_gpio.c ****   * @retval None
 502:Drivers/STM32F4xx_HAL_Driver/Src/stm32f4xx_hal_gpio.c ****   */
 503:Drivers/STM32F4xx_HAL_Driver/Src/stm32f4xx_hal_gpio.c **** void HAL_GPIO_EXTI_IRQHandler(uint16_t GPIO_Pin)
 504:Drivers/STM32F4xx_HAL_Driver/Src/stm32f4xx_hal_gpio.c **** {
 505:Drivers/STM32F4xx_HAL_Driver/Src/stm32f4xx_hal_gpio.c ****   /* EXTI line interrupt detected */
 506:Drivers/STM32F4xx_HAL_Driver/Src/stm32f4xx_hal_gpio.c ****   if(__HAL_GPIO_EXTI_GET_IT(GPIO_Pin) != RESET)
 507:Drivers/STM32F4xx_HAL_Driver/Src/stm32f4xx_hal_gpio.c ****   {
 508:Drivers/STM32F4xx_HAL_Driver/Src/stm32f4xx_hal_gpio.c ****     __HAL_GPIO_EXTI_CLEAR_IT(GPIO_Pin);
 509:Drivers/STM32F4xx_HAL_Driver/Src/stm32f4xx_hal_gpio.c ****     HAL_GPIO_EXTI_Callback(GPIO_Pin);
 510:Drivers/STM32F4xx_HAL_Driver/Src/stm32f4xx_hal_gpio.c ****   }
 511:Drivers/STM32F4xx_HAL_Driver/Src/stm32f4xx_hal_gpio.c **** }
 512:Drivers/STM32F4xx_HAL_Driver/Src/stm32f4xx_hal_gpio.c **** 
 513:Drivers/STM32F4xx_HAL_Driver/Src/stm32f4xx_hal_gpio.c **** /**
 514:Drivers/STM32F4xx_HAL_Driver/Src/stm32f4xx_hal_gpio.c ****   * @brief  EXTI line detection callbacks.
 515:Drivers/STM32F4xx_HAL_Driver/Src/stm32f4xx_hal_gpio.c ****   * @param  GPIO_Pin Specifies the pins connected EXTI line
 516:Drivers/STM32F4xx_HAL_Driver/Src/stm32f4xx_hal_gpio.c ****   * @retval None
 517:Drivers/STM32F4xx_HAL_Driver/Src/stm32f4xx_hal_gpio.c ****   */
 518:Drivers/STM32F4xx_HAL_Driver/Src/stm32f4xx_hal_gpio.c **** __weak void HAL_GPIO_EXTI_Callback(uint16_t GPIO_Pin)
 519:Drivers/STM32F4xx_HAL_Driver/Src/stm32f4xx_hal_gpio.c **** {
 1066              		.loc 1 519 0
 1067              		.cfi_startproc
ARM GAS  /tmp/ccEpSy9e.s 			page 30


 1068              		@ args = 0, pretend = 0, frame = 0
 1069              		@ frame_needed = 0, uses_anonymous_args = 0
 1070              		@ link register save eliminated.
 1071              	.LVL102:
 1072 0000 7047     		bx	lr
 1073              		.cfi_endproc
 1074              	.LFE130:
 1076              		.section	.text.HAL_GPIO_EXTI_IRQHandler,"ax",%progbits
 1077              		.align	1
 1078              		.global	HAL_GPIO_EXTI_IRQHandler
 1079              		.syntax unified
 1080              		.thumb
 1081              		.thumb_func
 1082              		.fpu fpv4-sp-d16
 1084              	HAL_GPIO_EXTI_IRQHandler:
 1085              	.LFB129:
 504:Drivers/STM32F4xx_HAL_Driver/Src/stm32f4xx_hal_gpio.c ****   /* EXTI line interrupt detected */
 1086              		.loc 1 504 0
 1087              		.cfi_startproc
 1088              		@ args = 0, pretend = 0, frame = 0
 1089              		@ frame_needed = 0, uses_anonymous_args = 0
 1090              	.LVL103:
 504:Drivers/STM32F4xx_HAL_Driver/Src/stm32f4xx_hal_gpio.c ****   /* EXTI line interrupt detected */
 1091              		.loc 1 504 0
 1092 0000 08B5     		push	{r3, lr}
 1093              	.LCFI11:
 1094              		.cfi_def_cfa_offset 8
 1095              		.cfi_offset 3, -8
 1096              		.cfi_offset 14, -4
 506:Drivers/STM32F4xx_HAL_Driver/Src/stm32f4xx_hal_gpio.c ****   {
 1097              		.loc 1 506 0
 1098 0002 054B     		ldr	r3, .L98
 1099 0004 5B69     		ldr	r3, [r3, #20]
 1100 0006 0342     		tst	r3, r0
 1101 0008 00D1     		bne	.L97
 1102              	.LVL104:
 1103              	.L94:
 1104 000a 08BD     		pop	{r3, pc}
 1105              	.LVL105:
 1106              	.L97:
 508:Drivers/STM32F4xx_HAL_Driver/Src/stm32f4xx_hal_gpio.c ****     HAL_GPIO_EXTI_Callback(GPIO_Pin);
 1107              		.loc 1 508 0
 1108 000c 024B     		ldr	r3, .L98
 1109 000e 5861     		str	r0, [r3, #20]
 509:Drivers/STM32F4xx_HAL_Driver/Src/stm32f4xx_hal_gpio.c ****   }
 1110              		.loc 1 509 0
 1111 0010 FFF7FEFF 		bl	HAL_GPIO_EXTI_Callback
 1112              	.LVL106:
 511:Drivers/STM32F4xx_HAL_Driver/Src/stm32f4xx_hal_gpio.c **** 
 1113              		.loc 1 511 0
 1114 0014 F9E7     		b	.L94
 1115              	.L99:
 1116 0016 00BF     		.align	2
 1117              	.L98:
 1118 0018 003C0140 		.word	1073822720
 1119              		.cfi_endproc
 1120              	.LFE129:
ARM GAS  /tmp/ccEpSy9e.s 			page 31


 1122              		.section	.rodata.HAL_GPIO_Init.str1.4,"aMS",%progbits,1
 1123              		.align	2
 1124              	.LC0:
 1125 0000 44726976 		.ascii	"Drivers/STM32F4xx_HAL_Driver/Src/stm32f4xx_hal_gpio"
 1125      6572732F 
 1125      53544D33 
 1125      32463478 
 1125      785F4841 
 1126 0033 2E6300   		.ascii	".c\000"
 1127              		.text
 1128              	.Letext0:
 1129              		.file 2 "/home/saicharan/arm/arm-none-eabi/include/machine/_default_types.h"
 1130              		.file 3 "/home/saicharan/arm/arm-none-eabi/include/stdint.h"
 1131              		.file 4 "Drivers/CMSIS/Include/core_cm4.h"
 1132              		.file 5 "Drivers/CMSIS/Device/ST/STM32F4xx/Include/system_stm32f4xx.h"
 1133              		.file 6 "Drivers/CMSIS/Device/ST/STM32F4xx/Include/stm32f407xx.h"
 1134              		.file 7 "/home/saicharan/arm/arm-none-eabi/include/sys/lock.h"
 1135              		.file 8 "/home/saicharan/arm/arm-none-eabi/include/sys/_types.h"
 1136              		.file 9 "/home/saicharan/arm/lib/gcc/arm-none-eabi/6.3.0/include/stddef.h"
 1137              		.file 10 "/home/saicharan/arm/arm-none-eabi/include/sys/reent.h"
 1138              		.file 11 "Drivers/CMSIS/Device/ST/STM32F4xx/Include/stm32f4xx.h"
 1139              		.file 12 "Drivers/STM32F4xx_HAL_Driver/Inc/stm32f4xx_hal_def.h"
 1140              		.file 13 "Drivers/STM32F4xx_HAL_Driver/Inc/stm32f4xx_hal_gpio.h"
 1141              		.file 14 "Inc/stm32f4xx_hal_conf.h"
ARM GAS  /tmp/ccEpSy9e.s 			page 32

